ASxxxx Linker V03.00 + NoICE + sdld,  page 1.
Hexadecimal  [32-Bits]

Area                                    Addr        Size        Decimal Bytes (Attributes)
--------------------------------        ----        ----        ------- ----- ------------
.  .ABS.                            00000000    00000000 =           0. bytes (ABS,CON)

      Value  Global                              Global Defined In Module
      -----  --------------------------------   ------------------------
     00000000  .__.ABS.                           
     00000000  _rRAMG                             
     00000000  l__CABS                         
     00000000  l__CODE_0                       
     00000000  l__DABS                         
     00000000  l__HEADER                       
     00000000  l__HEADER_LCD                   
     00000000  l__HEADER_SIO                   
     00000000  l__HEADER_TIMER                 
     00000000  l__HEAP                         
     00000000  l__HRAM                         
     00000000  l__LIT                          
     00000000  s__CABS                         
     00000000  s__DABS                         
     00000000  s__HEADER                       
     00000000  s__HEADER0                      
     00000000  s__HEADER1                      
     00000000  s__HEADER10                     
     00000000  s__HEADER11                     
     00000000  s__HEADER2                      
     00000000  s__HEADER3                      
     00000000  s__HEADER4                      
     00000000  s__HEADER5                      
     00000000  s__HEADER6                      
     00000000  s__HEADER7                      
     00000000  s__HEADER8                      
     00000000  s__HEADER9                      
     00000000  s__HEADER_LCD                   
     00000000  s__HEADER_LCD0                  
     00000000  s__HEADER_SIO                   
     00000000  s__HEADER_SIO0                  
     00000000  s__HEADER_TIMER                 
     00000000  s__HEADER_TIMER0                
     00000000  s__HEADERa                      
     00000000  s__HEADERb                      
     00000000  s__HEADERc                      
     00000000  s__HEADERd                      
     00000000  s__HEADERe                      
     00000000  s__HEADERf                      
     00000000  s__HRAM                         
     00000000  s__HRAM12                       
     00000001  b_activate_actor                   actor
     00000001  b_activate_actors_in_col           actor
     00000001  b_activate_actors_in_row           actor
     00000001  b_actor_at_tile                    actor
     00000001  b_actor_get_frame_offset           actor
     00000001  b_actor_in_front_of_player         actor
     00000001  b_actor_overlapping_bb             actor
     00000001  b_actor_overlapping_player         actor
     00000001  b_actor_set_anim_idle              actor
ASxxxx Linker V03.00 + NoICE + sdld,  page 2.
Hexadecimal  [32-Bits]

Area                                    Addr        Size        Decimal Bytes (Attributes)
--------------------------------        ----        ----        ------- ----- ------------
.  .ABS.                            00000000    00000000 =           0. bytes (ABS,CON)

      Value  Global                              Global Defined In Module
      -----  --------------------------------   ------------------------
     00000001  b_actor_set_anim_moving            actor
     00000001  b_actor_set_dir                    actor
     00000001  b_actor_set_frame_offset           actor
     00000001  b_actor_set_frames                 actor
     00000001  b_actors_handle_player_collision   actor
     00000001  b_actors_init                      actor
     00000001  b_camera_init                      camera
     00000001  b_camera_reset                     camera
     00000001  b_check_collision_in_direction     actor
     00000001  b_deactivate_actor                 actor
     00000001  b_parallax_init                    parallax
     00000001  b_player_init                      actor
     00000001  b_remove_LCD_ISRs                  interrupts
     00000001  b_scroll_init                      scroll
     00000001  b_scroll_repaint                   scroll
     00000001  b_scroll_reset                     scroll
     00000001  b_scroll_update                    scroll
     00000001  b_ui_draw_frame                    ui
     00000001  b_ui_draw_text_buffer_char         ui
     00000001  b_ui_init                          ui
     00000001  b_ui_load_tiles                    ui
     00000001  b_ui_run_menu                      ui
     00000001  b_ui_run_modal                     ui
     00000001  l__GSFINAL                      
     00000001  l__HEADER0                      
     00000001  l__HEADER11                     
     00000001  l__HEADER9                      
     00000001  l__HEADERa                      
     00000001  l__HEADERb                      
     00000001  l__HEADERd                      
     00000001  l__HEADERe                      
     00000002  b_camera_shake_frames              vm_camera
     00000002  b_itoa_fmt                         vm_ui_a
     00000002  b_script_execute                   vm
     00000002  b_script_runner_init               vm
     00000002  b_script_terminate                 vm
     00000002  b_scroll_rect                      
     00000002  b_vm_actor_activate                vm_actor
     00000002  b_vm_actor_deactivate              vm_actor
     00000002  b_vm_actor_emote                   vm_actor
     00000002  b_vm_actor_get_angle               vm_actor
     00000002  b_vm_actor_get_anim_frame          vm_actor
     00000002  b_vm_actor_get_dir                 vm_actor
     00000002  b_vm_actor_get_pos                 vm_actor
     00000002  b_vm_actor_move_to                 vm_actor
     00000002  b_vm_actor_replace_tile            vm_actor
     00000002  b_vm_actor_set_anim                vm_actor
     00000002  b_vm_actor_set_anim_frame          vm_actor
     00000002  b_vm_actor_set_anim_set            vm_actor
     00000002  b_vm_actor_set_anim_tick           vm_actor
     00000002  b_vm_actor_set_bounds              vm_actor
ASxxxx Linker V03.00 + NoICE + sdld,  page 3.
Hexadecimal  [32-Bits]

Area                                    Addr        Size        Decimal Bytes (Attributes)
--------------------------------        ----        ----        ------- ----- ------------
.  .ABS.                            00000000    00000000 =           0. bytes (ABS,CON)

      Value  Global                              Global Defined In Module
      -----  --------------------------------   ------------------------
     00000002  b_vm_actor_set_coll_enabled        vm_actor
     00000002  b_vm_actor_set_dir                 vm_actor
     00000002  b_vm_actor_set_hidden              vm_actor
     00000002  b_vm_actor_set_move_speed          vm_actor
     00000002  b_vm_actor_set_pos                 vm_actor
     00000002  b_vm_actor_set_spritesheet         vm_actor
     00000002  b_vm_actor_terminate_update        vm_actor
     00000002  b_vm_call                          vm
     00000002  b_vm_call_far                      vm
     00000002  b_vm_call_rel                      vm
     00000002  b_vm_camera_move_to                vm_camera
     00000002  b_vm_camera_set_pos                vm_camera
     00000002  b_vm_choice                        vm_ui
     00000002  b_vm_context_prepare               vm_gameboy
     00000002  b_vm_cos_scale                     vm_math
     00000002  b_vm_display_text                  vm_ui
     00000002  b_vm_fade_in                       vm_gameboy
     00000002  b_vm_fade_out                      vm_gameboy
     00000002  b_vm_get_indirect                  vm
     00000002  b_vm_get_int16                     vm
     00000002  b_vm_get_int8                      vm
     00000002  b_vm_get_tile_xy                   vm_gameboy
     00000002  b_vm_get_tlocal                    vm
     00000002  b_vm_get_uint8                     vm
     00000002  b_vm_hide_sprites                  vm_gameboy
     00000002  b_vm_idle                          vm
     00000002  b_vm_if                            vm
     00000002  b_vm_if_const                      vm
     00000002  b_vm_input_attach                  vm_gameboy
     00000002  b_vm_input_detach                  vm_gameboy
     00000002  b_vm_input_get                     vm_gameboy
     00000002  b_vm_input_wait                    vm_gameboy
     00000002  b_vm_invoke                        vm
     00000002  b_vm_join                          vm
     00000002  b_vm_jump                          vm
     00000002  b_vm_jump_rel                      vm
     00000002  b_vm_load_cursor                   vm_ui
     00000002  b_vm_load_frame                    vm_ui
     00000002  b_vm_load_palette                  vm_palette
     00000002  b_vm_lock                          vm
     00000002  b_vm_loop                          vm
     00000002  b_vm_loop_rel                      vm
     00000002  b_vm_memcpy                        vm
     00000002  b_vm_memset                        vm
     00000002  b_vm_music_mute                    vm_music
     00000002  b_vm_music_play                    vm_music
     00000002  b_vm_music_routine                 vm_music
     00000002  b_vm_music_setpos                  vm_music
     00000002  b_vm_music_stop                    vm_music
     00000002  b_vm_overlay_clear                 vm_ui
     00000002  b_vm_overlay_hide                  vm_ui
ASxxxx Linker V03.00 + NoICE + sdld,  page 4.
Hexadecimal  [32-Bits]

Area                                    Addr        Size        Decimal Bytes (Attributes)
--------------------------------        ----        ----        ------- ----- ------------
.  .ABS.                            00000000    00000000 =           0. bytes (ABS,CON)

      Value  Global                              Global Defined In Module
      -----  --------------------------------   ------------------------
     00000002  b_vm_overlay_move_to               vm_ui
     00000002  b_vm_overlay_scroll                vm_ui
     00000002  b_vm_overlay_set_scroll            vm_ui
     00000002  b_vm_overlay_set_submap            vm_ui
     00000002  b_vm_overlay_setpos                vm_ui
     00000002  b_vm_overlay_show                  vm_ui
     00000002  b_vm_overlay_wait                  vm_ui
     00000002  b_vm_poll                          vm_gameboy
     00000002  b_vm_poll_loaded                   vm
     00000002  b_vm_pop                           vm
     00000002  b_vm_projectile_launch             vm_projectiles
     00000002  b_vm_push                          vm
     00000002  b_vm_push_reference                vm
     00000002  b_vm_push_value                    vm
     00000002  b_vm_push_value_ind                vm
     00000002  b_vm_raise                         vm
     00000002  b_vm_rand                          vm
     00000002  b_vm_randomize                     vm
     00000002  b_vm_replace_tile                  vm_gameboy
     00000002  b_vm_replace_tile_xy               vm_gameboy
     00000002  b_vm_reserve                       vm
     00000002  b_vm_ret                           vm
     00000002  b_vm_ret_far                       vm
     00000002  b_vm_rtc_get                       vm_rtc
     00000002  b_vm_rtc_latch                     vm_rtc
     00000002  b_vm_rtc_set                       vm_rtc
     00000002  b_vm_rtc_start                     vm_rtc
     00000002  b_vm_rumble                        vm_gameboy
     00000002  b_vm_save_clear                    vm_load_save
     00000002  b_vm_save_peek                     vm_load_save
     00000002  b_vm_scene_pop                     vm_scene
     00000002  b_vm_scene_pop_all                 vm_scene
     00000002  b_vm_scene_push                    vm_scene
     00000002  b_vm_scene_stack_reset             vm_scene
     00000002  b_vm_set                           vm
     00000002  b_vm_set_const                     vm
     00000002  b_vm_set_const_int16               vm
     00000002  b_vm_set_const_int8                vm
     00000002  b_vm_set_font                      vm_ui
     00000002  b_vm_set_indirect                  vm
     00000002  b_vm_set_int16                     vm
     00000002  b_vm_set_int8                      vm
     00000002  b_vm_set_print_dir                 vm_ui
     00000002  b_vm_set_sprite_mode               vm_gameboy
     00000002  b_vm_set_uint8                     vm
     00000002  b_vm_show_sprites                  vm_gameboy
     00000002  b_vm_sin_scale                     vm_math
     00000002  b_vm_sio_exchange                  vm_sio
     00000002  b_vm_sio_set_mode                  vm_sio
     00000002  b_vm_sound_mastervol               vm_music
     00000002  b_vm_sound_play                    vm_music
ASxxxx Linker V03.00 + NoICE + sdld,  page 5.
Hexadecimal  [32-Bits]

Area                                    Addr        Size        Decimal Bytes (Attributes)
--------------------------------        ----        ----        ------- ----- ------------
.  .ABS.                            00000000    00000000 =           0. bytes (ABS,CON)

      Value  Global                              Global Defined In Module
      -----  --------------------------------   ------------------------
     00000002  b_vm_switch_text_layer             vm_ui
     00000002  b_vm_systime                       vm
     00000002  b_vm_terminate                     vm
     00000002  b_vm_test_terminate                vm
     00000002  b_vm_timer_prepare                 vm_gameboy
     00000002  b_vm_timer_reset                   vm_gameboy
     00000002  b_vm_timer_set                     vm_gameboy
     00000002  b_vm_timer_stop                    vm_gameboy
     00000002  b_vm_unlock                        vm
     00000002  b_vm_wave_play                     vm_music
     00000002  b_wait_frames                      vm
     00000002  l__HEADER5                      
     00000002  l__HEADERc                      
     00000002  l__HEADERf                      
     00000003  b_adventure_init                   adventure
     00000003  b_adventure_update                 adventure
     00000003  b_logo_init                        logo
     00000003  b_logo_update                      logo
     00000003  b_platform_init                    platform
     00000003  b_platform_update                  platform
     00000003  b_pointnclick_init                 pointnclick
     00000003  b_pointnclick_update               pointnclick
     00000003  b_shmup_init                       shmup
     00000003  b_shmup_update                     shmup
     00000003  b_topdown_init                     topdown
     00000003  b_topdown_update                   topdown
     00000003  l__HEADER8                      
     00000003  l__HEADER_LCD0                  
     00000003  l__HRAM12                       
     00000004  b_SIO_init                         sio
     00000004  b_core_reset                       core
     00000004  b_core_run                         core
     00000004  b_data_clear                       load_save
     00000004  b_data_init                        load_save
     00000004  b_data_load                        load_save
     00000004  b_data_peek                        load_save
     00000004  b_data_save                        load_save
     00000004  b_do_load_palette                  data_manager
     00000004  b_events_init                      events
     00000004  b_fade_applypalettechange          fade_manager
     00000004  b_fade_in                          fade_manager
     00000004  b_fade_in_modal                    fade_manager
     00000004  b_fade_init                        fade_manager
     00000004  b_fade_out                         fade_manager
     00000004  b_fade_out_modal                   fade_manager
     00000004  b_fade_setspeed                    fade_manager
     00000004  b_fade_update                      fade_manager
     00000004  b_input_init                       input
     00000004  b_load_background                  data_manager
     00000004  b_load_bkg_tileset                 data_manager
     00000004  b_load_bounds                      data_manager
ASxxxx Linker V03.00 + NoICE + sdld,  page 6.
Hexadecimal  [32-Bits]

Area                                    Addr        Size        Decimal Bytes (Attributes)
--------------------------------        ----        ----        ------- ----- ------------
.  .ABS.                            00000000    00000000 =           0. bytes (ABS,CON)

      Value  Global                              Global Defined In Module
      -----  --------------------------------   ------------------------
     00000004  b_load_emote                       data_manager
     00000004  b_load_init                        data_manager
     00000004  b_load_player                      data_manager
     00000004  b_load_scene                       data_manager
     00000004  b_load_sprite                      data_manager
     00000004  b_music_events_poll                music_manager
     00000004  b_music_init                       music_manager
     00000004  b_music_stop                       music_manager
     00000004  b_palette_init                     palette
     00000004  b_projectile_launch                projectiles
     00000004  b_projectiles_init                 projectiles
     00000004  b_restore_sram                     flasher
     00000004  b_restore_sram_bank                flasher
     00000004  b_save_sram                        flasher
     00000004  b_set_sample                       sample_player
     00000004  b_set_sgb_border                   sgb_border
     00000004  b_sound_init                       music_manager
     00000004  b_sound_play                       music_manager
     00000004  b_timers_init                      events
     00000004  b_trigger_activate_at              trigger
     00000004  b_trigger_activate_at_intersecti   trigger
     00000004  b_trigger_at_intersection          trigger
     00000004  b_trigger_at_tile                  trigger
     00000004  b_trigger_interact                 trigger
     00000004  b_trigger_reset                    trigger
     00000004  b_wave_play                        music_manager
     00000004  l__HEADER_SIO0                  
     00000004  l__HEADER_TIMER0                
     00000005  ___bank_palette_0                  palette_0
     00000005  ___bank_scene_23_collisions        scene_23_collisions
     00000005  ___bank_scene_56_collisions        scene_56_collisions
     00000005  ___bank_spritesheet_14             spritesheet_14
     00000005  l__HEADER1                      
     00000006  ___bank_scene_10_sprites           scene_10_sprites
     00000006  ___bank_tilemap_86                 tilemap_86
     00000006  ___bank_tilemap_9                  tilemap_9
     00000006  ___bank_tileset_21                 tileset_21
     00000006  l__HEADER7                      
     00000007  ___bank_background_0               background_0
     00000007  ___bank_scene_57_collisions        scene_57_collisions
     00000007  ___bank_tilemap_10                 tilemap_10
     00000007  ___bank_tileset_46                 tileset_46
     00000007  l__HEADER2                      
     00000008  ___bank_background_1               background_1
     00000008  ___bank_scene_51_collisions        scene_51_collisions
     00000008  ___bank_scene_52_collisions        scene_52_collisions
     00000008  ___bank_tileset_18                 tileset_18
     00000008  l__HEADER3                      
     00000009  ___bank_scene_104_triggers         scene_104_triggers
     00000009  ___bank_scene_62_collisions        scene_62_collisions
     00000009  ___bank_tilemap_23                 tilemap_23
ASxxxx Linker V03.00 + NoICE + sdld,  page 7.
Hexadecimal  [32-Bits]

Area                                    Addr        Size        Decimal Bytes (Attributes)
--------------------------------        ----        ----        ------- ----- ------------
.  .ABS.                            00000000    00000000 =           0. bytes (ABS,CON)

      Value  Global                              Global Defined In Module
      -----  --------------------------------   ------------------------
     00000009  ___bank_tilemap_5                  tilemap_5
     0000000A  ___bank_scene_14_collisions        scene_14_collisions
     0000000A  ___bank_scene_22_collisions        scene_22_collisions
     0000000A  ___bank_scene_6_triggers           scene_6_triggers
     0000000A  ___bank_tilemap_110                tilemap_110
     0000000B  ___bank_background_10              background_10
     0000000B  ___bank_scene_11_collisions        scene_11_collisions
     0000000B  ___bank_script_s123_init           
     0000000B  ___bank_tileset_11                 tileset_11
     0000000B  ___bank_tileset_12                 tileset_12
     0000000C  ___bank_cursor_image               cursor_image
     0000000C  ___bank_scene_9_collisions         scene_9_collisions
     0000000C  ___bank_script_s132_init           
     0000000C  ___bank_script_s7a1_interact       
     0000000C  ___bank_tileset_33                 tileset_33
     0000000C  ___bank_tileset_34                 tileset_34
     0000000D  ___bank_script_input_0             
     0000000D  ___bank_spritesheet_25             spritesheet_25
     0000000D  ___bank_tilemap_119                tilemap_119
     0000000D  ___bank_tileset_45                 tileset_45
     0000000D  ___bank_tileset_48                 tileset_48
     0000000D  l__INITIALIZED                  
     0000000D  l__INITIALIZER                  
     0000000E  ___bank_scene_0_collisions         scene_0_collisions
     0000000E  ___bank_script_s22t0_interact      
     0000000E  ___bank_tilemap_122                tilemap_122
     0000000E  ___bank_tileset_50                 tileset_50
     0000000E  ___bank_tileset_54                 tileset_54
     0000000F  ___bank_scene_18_collisions        scene_18_collisions
     0000000F  ___bank_script_s22t1_interact      
     0000000F  ___bank_tilemap_123                tilemap_123
     0000000F  ___bank_tileset_55                 tileset_55
     0000000F  ___bank_tileset_60                 tileset_60
     00000010  ___bank_scene_58_collisions        scene_58_collisions
     00000010  ___bank_scene_85_collisions        scene_85_collisions
     00000010  ___bank_spritesheet_15             spritesheet_15
     00000010  ___bank_tilemap_61                 tilemap_61
     00000011  ___bank_palette_1                  palette_1
     00000011  ___bank_scene_59_collisions        scene_59_collisions
     00000011  ___bank_script_s5_init             
     00000011  ___bank_tilemap_11                 tilemap_11
     00000011  ___bank_tilemap_12                 tilemap_12
     00000012  ___bank_scene_31_collisions        scene_31_collisions
     00000012  ___bank_scene_55_collisions        scene_55_collisions
     00000012  ___bank_script_s22t3_interact      
     00000012  ___bank_tilemap_79                 tilemap_79
     00000012  ___bank_tileset_10                 tileset_10
     00000013  ___bank_scene_108_triggers         scene_108_triggers
     00000013  ___bank_scene_11_sprites           scene_11_sprites
     00000013  ___bank_scene_70_collisions        scene_70_collisions
     00000013  ___bank_tilemap_71                 tilemap_71
ASxxxx Linker V03.00 + NoICE + sdld,  page 8.
Hexadecimal  [32-Bits]

Area                                    Addr        Size        Decimal Bytes (Attributes)
--------------------------------        ----        ----        ------- ----- ------------
.  .ABS.                            00000000    00000000 =           0. bytes (ABS,CON)

      Value  Global                              Global Defined In Module
      -----  --------------------------------   ------------------------
     00000013  ___bank_tilemap_8                  tilemap_8
     00000013  ___bank_tileset_0                  tileset_0
     00000014  ___bank_scene_101_sprites          scene_101_sprites
     00000014  ___bank_scene_10_collisions        scene_10_collisions
     00000014  ___bank_scene_11_triggers          scene_11_triggers
     00000014  ___bank_scene_7_collisions         scene_7_collisions
     00000014  ___bank_scene_89_collisions        scene_89_collisions
     00000014  ___bank_tileset_1                  tileset_1
     00000014  ___bank_tileset_9                  tileset_9
     00000015  ___bank_scene_104_sprites          scene_104_sprites
     00000015  ___bank_scene_88_collisions        scene_88_collisions
     00000015  ___bank_scene_99_collisions        scene_99_collisions
     00000015  ___bank_tilemap_117                tilemap_117
     00000015  ___bank_tilemap_120                tilemap_120
     00000015  ___bank_tilemap_65                 tilemap_65
     00000016  ___bank_scene_112_sprites          scene_112_sprites
     00000016  ___bank_scene_16_collisions        scene_16_collisions
     00000016  ___bank_scene_17_collisions        scene_17_collisions
     00000016  ___bank_scene_19_collisions        scene_19_collisions
     00000016  ___bank_tilemap_64                 tilemap_64
     00000016  ___bank_tileset_19                 tileset_19
     00000017  ___bank_scene_106_sprites          scene_106_sprites
     00000017  ___bank_scene_21_triggers          scene_21_triggers
     00000017  ___bank_tilemap_111                tilemap_111
     00000017  ___bank_tilemap_113                tilemap_113
     00000017  ___bank_tilemap_114                tilemap_114
     00000017  ___bank_tileset_3                  tileset_3
     00000017  ___bank_tileset_49                 tileset_49
     00000018  ___bank_scene_110_triggers         scene_110_triggers
     00000018  ___bank_scene_69_collisions        scene_69_collisions
     00000018  ___bank_tilemap_70                 tilemap_70
     00000018  ___bank_tileset_15                 tileset_15
     00000018  ___bank_tileset_2                  tileset_2
     00000018  ___bank_tileset_36                 tileset_36
     00000018  ___bank_tileset_76                 tileset_76
     00000019  ___bank_scene_0                    scene_0
     00000019  ___bank_scene_71_collisions        scene_71_collisions
     00000019  ___bank_scene_84_collisions        scene_84_collisions
     00000019  ___bank_tilemap_47                 tilemap_47
     00000019  ___bank_tilemap_60                 tilemap_60
     00000019  ___bank_tileset_14                 tileset_14
     00000019  ___bank_tileset_75                 tileset_75
     0000001A  ___bank_scene_48_collisions        scene_48_collisions
     0000001A  ___bank_scene_70_triggers          scene_70_triggers
     0000001A  ___bank_scene_87_collisions        scene_87_collisions
     0000001A  ___bank_tileset_41                 tileset_41
     0000001A  ___bank_tileset_42                 tileset_42
     0000001A  ___bank_tileset_44                 tileset_44
     0000001A  ___bank_tileset_5                  tileset_5
     0000001B  ___bank_scene_107_sprites          scene_107_sprites
     0000001B  ___bank_scene_118_collisions       scene_118_collisions
ASxxxx Linker V03.00 + NoICE + sdld,  page 9.
Hexadecimal  [32-Bits]

Area                                    Addr        Size        Decimal Bytes (Attributes)
--------------------------------        ----        ----        ------- ----- ------------
.  .ABS.                            00000000    00000000 =           0. bytes (ABS,CON)

      Value  Global                              Global Defined In Module
      -----  --------------------------------   ------------------------
     0000001B  ___bank_scene_32_triggers          scene_32_triggers
     0000001B  ___bank_scene_49_collisions        scene_49_collisions
     0000001B  ___bank_tilemap_20                 tilemap_20
     0000001B  ___bank_tilemap_21                 tilemap_21
     0000001B  ___bank_tileset_35                 tileset_35
     0000001B  ___bank_tileset_57                 tileset_57
     0000001C  ___bank_scene_17_triggers          scene_17_triggers
     0000001C  ___bank_scene_32_collisions        scene_32_collisions
     0000001C  ___bank_scene_78_collisions        scene_78_collisions
     0000001C  ___bank_tilemap_66                 tilemap_66
     0000001C  ___bank_tileset_30                 tileset_30
     0000001C  ___bank_tileset_43                 tileset_43
     0000001C  ___bank_tileset_52                 tileset_52
     0000001D  ___bank_scene_15_collisions        scene_15_collisions
     0000001D  ___bank_script_timer_0             
     0000001D  ___bank_tilemap_124                tilemap_124
     0000001D  ___bank_tileset_31                 tileset_31
     0000001D  ___bank_tileset_37                 tileset_37
     0000001D  ___bank_tileset_38                 tileset_38
     0000001D  ___bank_tileset_53                 tileset_53
     0000001E  ___bank_scene_104_collisions       scene_104_collisions
     0000001E  ___bank_scene_108_collisions       scene_108_collisions
     0000001E  ___bank_script_s102t1_interact     
     0000001E  ___bank_tilemap_0                  tilemap_0
     0000001E  ___bank_tilemap_1                  tilemap_1
     0000001E  ___bank_tilemap_112                tilemap_112
     0000001E  ___bank_tileset_29                 tileset_29
     0000001E  ___bank_tileset_6                  tileset_6
     0000001F  ___bank_scene_22_triggers          scene_22_triggers
     0000001F  ___bank_scene_72_collisions        scene_72_collisions
     0000001F  ___bank_scene_83_collisions        scene_83_collisions
     0000001F  ___bank_tilemap_48                 tilemap_48
     0000001F  ___bank_tilemap_59                 tilemap_59
     0000001F  ___bank_tileset_17                 tileset_17
     0000001F  ___bank_tileset_27                 tileset_27
     0000001F  ___bank_tileset_47                 tileset_47
     00000020  ___bank_scene_10_triggers          scene_10_triggers
     00000020  ___bank_scene_41_collisions        scene_41_collisions
     00000020  ___bank_scene_44_collisions        scene_44_collisions
     00000020  ___bank_scene_45_collisions        scene_45_collisions
     00000020  ___bank_spritesheet_2              spritesheet_2
     00000020  ___bank_tilemap_15                 tilemap_15
     00000020  ___bank_tilemap_17                 tilemap_17
     00000020  ___bank_tilemap_89                 tilemap_89
     00000020  ___bank_tileset_39                 tileset_39
     00000021  ___bank_scene_1                    scene_1
     00000021  ___bank_scene_12_collisions        scene_12_collisions
     00000021  ___bank_scene_27_collisions        scene_27_collisions
     00000021  ___bank_scene_30_collisions        scene_30_collisions
     00000021  ___bank_scene_66_collisions        scene_66_collisions
     00000021  ___bank_tilemap_81                 tilemap_81
ASxxxx Linker V03.00 + NoICE + sdld,  page 10.
Hexadecimal  [32-Bits]

Area                                    Addr        Size        Decimal Bytes (Attributes)
--------------------------------        ----        ----        ------- ----- ------------
.  .ABS.                            00000000    00000000 =           0. bytes (ABS,CON)

      Value  Global                              Global Defined In Module
      -----  --------------------------------   ------------------------
     00000021  ___bank_tilemap_83                 tilemap_83
     00000021  ___bank_tilemap_90                 tilemap_90
     00000021  ___bank_tileset_40                 tileset_40
     00000022  ___bank_font_0                     font_0
     00000022  ___bank_scene_124_collisions       scene_124_collisions
     00000022  ___bank_scene_4_collisions         scene_4_collisions
     00000022  ___bank_scene_80_collisions        scene_80_collisions
     00000022  ___bank_script_s130_init           
     00000022  ___bank_tilemap_16                 tilemap_16
     00000022  ___bank_tilemap_3                  tilemap_3
     00000022  ___bank_tilemap_55                 tilemap_55
     00000022  ___bank_tilemap_67                 tilemap_67
     00000023  ___bank_scene_110_collisions       scene_110_collisions
     00000023  ___bank_scene_111_collisions       scene_111_collisions
     00000023  ___bank_scene_14_sprites           scene_14_sprites
     00000023  ___bank_scene_34_collisions        scene_34_collisions
     00000023  ___bank_scene_47_collisions        scene_47_collisions
     00000023  ___bank_scene_50_collisions        scene_50_collisions
     00000023  ___bank_tilemap_22                 tilemap_22
     00000023  ___bank_tilemap_63                 tilemap_63
     00000023  ___bank_tilemap_95                 tilemap_95
     00000023  ___bank_tileset_59                 tileset_59
     00000024  ___bank_background_100             background_100
     00000024  ___bank_scene_40_collisions        scene_40_collisions
     00000024  ___bank_scene_77_collisions        scene_77_collisions
     00000024  ___bank_scene_79_collisions        scene_79_collisions
     00000024  ___bank_spritesheet_33             spritesheet_33
     00000024  ___bank_tilemap_53                 tilemap_53
     00000024  ___bank_tilemap_54                 tilemap_54
     00000024  ___bank_tilemap_74                 tilemap_74
     00000024  ___bank_tilemap_88                 tilemap_88
     00000024  ___bank_tileset_28                 tileset_28
     00000024  ___bank_tileset_8                  tileset_8
     00000025  ___bank_scene_111_triggers         scene_111_triggers
     00000025  ___bank_scene_20_collisions        scene_20_collisions
     00000025  ___bank_scene_68_collisions        scene_68_collisions
     00000025  ___bank_scene_73_collisions        scene_73_collisions
     00000025  ___bank_scene_75_collisions        scene_75_collisions
     00000025  ___bank_tilemap_49                 tilemap_49
     00000025  ___bank_tilemap_51                 tilemap_51
     00000025  ___bank_tilemap_69                 tilemap_69
     00000025  ___bank_tileset_13                 tileset_13
     00000025  ___bank_tileset_63                 tileset_63
     00000025  ___bank_tileset_69                 tileset_69
     00000025  ___bank_tileset_85                 tileset_85
     00000026  ___bank_scene_100_collisions       scene_100_collisions
     00000026  ___bank_scene_102_collisions       scene_102_collisions
     00000026  ___bank_scene_42_collisions        scene_42_collisions
     00000026  ___bank_scene_43_collisions        scene_43_collisions
     00000026  ___bank_scene_6_collisions         scene_6_collisions
     00000026  ___bank_scene_82_collisions        scene_82_collisions
ASxxxx Linker V03.00 + NoICE + sdld,  page 11.
Hexadecimal  [32-Bits]

Area                                    Addr        Size        Decimal Bytes (Attributes)
--------------------------------        ----        ----        ------- ----- ------------
.  .ABS.                            00000000    00000000 =           0. bytes (ABS,CON)

      Value  Global                              Global Defined In Module
      -----  --------------------------------   ------------------------
     00000026  ___bank_script_input_13            
     00000026  ___bank_tilemap_115                tilemap_115
     00000026  ___bank_tilemap_116                tilemap_116
     00000026  ___bank_tileset_25                 tileset_25
     00000026  ___bank_tileset_67                 tileset_67
     00000026  ___bank_tileset_94                 tileset_94
     00000027  ___bank_scene_16_sprites           scene_16_sprites
     00000027  ___bank_scene_54_collisions        scene_54_collisions
     00000027  ___bank_scene_60_collisions        scene_60_collisions
     00000027  ___bank_scene_61_collisions        scene_61_collisions
     00000027  ___bank_tilemap_13                 tilemap_13
     00000027  ___bank_tilemap_19                 tilemap_19
     00000027  ___bank_tilemap_4                  tilemap_4
     00000027  ___bank_tilemap_57                 tilemap_57
     00000027  ___bank_tilemap_93                 tilemap_93
     00000027  ___bank_tilemap_98                 tilemap_98
     00000027  ___bank_tileset_16                 tileset_16
     00000027  ___bank_tileset_51                 tileset_51
     00000027  ___bank_tileset_58                 tileset_58
     00000028  ___bank_scene_102_triggers         scene_102_triggers
     00000028  ___bank_scene_35_collisions        scene_35_collisions
     00000028  ___bank_scene_36_collisions        scene_36_collisions
     00000028  ___bank_scene_38_collisions        scene_38_collisions
     00000028  ___bank_scene_74_collisions        scene_74_collisions
     00000028  ___bank_spritesheet_6              spritesheet_6
     00000028  ___bank_tilemap_14                 tilemap_14
     00000028  ___bank_tilemap_36                 tilemap_36
     00000028  ___bank_tilemap_50                 tilemap_50
     00000028  ___bank_tilemap_7                  tilemap_7
     00000028  ___bank_tilemap_76                 tilemap_76
     00000028  ___bank_tilemap_78                 tilemap_78
     00000028  ___bank_tilemap_87                 tilemap_87
     00000028  ___bank_tileset_32                 tileset_32
     00000028  ___bank_tileset_89                 tileset_89
     00000029  ___bank_scene_103_collisions       scene_103_collisions
     00000029  ___bank_scene_109_collisions       scene_109_collisions
     00000029  ___bank_scene_3_collisions         scene_3_collisions
     00000029  ___bank_scene_46_collisions        scene_46_collisions
     00000029  ___bank_scene_53_collisions        scene_53_collisions
     00000029  ___bank_scene_8_collisions         scene_8_collisions
     00000029  ___bank_script_s145_init           
     00000029  ___bank_tilemap_107                tilemap_107
     00000029  ___bank_tilemap_118                tilemap_118
     00000029  ___bank_tilemap_121                tilemap_121
     00000029  ___bank_tilemap_18                 tilemap_18
     00000029  ___bank_tilemap_45                 tilemap_45
     00000029  ___bank_tilemap_6                  tilemap_6
     00000029  ___bank_tilemap_96                 tilemap_96
     00000029  ___bank_tileset_7                  tileset_7
     00000029  ___bank_tileset_84                 tileset_84
     00000029  ___bank_tileset_86                 tileset_86
ASxxxx Linker V03.00 + NoICE + sdld,  page 12.
Hexadecimal  [32-Bits]

Area                                    Addr        Size        Decimal Bytes (Attributes)
--------------------------------        ----        ----        ------- ----- ------------
.  .ABS.                            00000000    00000000 =           0. bytes (ABS,CON)

      Value  Global                              Global Defined In Module
      -----  --------------------------------   ------------------------
     00000029  ___bank_tileset_90                 tileset_90
     0000002A  ___bank_scene_105_collisions       scene_105_collisions
     0000002A  ___bank_scene_123_sprites          scene_123_sprites
     0000002A  ___bank_scene_25_collisions        scene_25_collisions
     0000002A  ___bank_scene_28_collisions        scene_28_collisions
     0000002A  ___bank_scene_33_collisions        scene_33_collisions
     0000002A  ___bank_scene_37_collisions        scene_37_collisions
     0000002A  ___bank_scene_39_collisions        scene_39_collisions
     0000002A  ___bank_scene_64_collisions        scene_64_collisions
     0000002A  ___bank_script_s112_init           
     0000002A  ___bank_tilemap_2                  tilemap_2
     0000002A  ___bank_tilemap_58                 tilemap_58
     0000002A  ___bank_tilemap_75                 tilemap_75
     0000002A  ___bank_tilemap_77                 tilemap_77
     0000002A  ___bank_tilemap_82                 tilemap_82
     0000002A  ___bank_tilemap_84                 tilemap_84
     0000002A  ___bank_tilemap_91                 tilemap_91
     0000002A  ___bank_tileset_20                 tileset_20
     0000002A  ___bank_tileset_22                 tileset_22
     0000002A  ___bank_tileset_23                 tileset_23
     0000002A  ___bank_tileset_4                  tileset_4
     0000002A  ___bank_tileset_56                 tileset_56
     0000002A  ___bank_tileset_62                 tileset_62
     0000002A  ___bank_tileset_82                 tileset_82
     0000002B  ___bank_scene_101_collisions       scene_101_collisions
     0000002B  ___bank_scene_112_collisions       scene_112_collisions
     0000002B  ___bank_scene_115_collisions       scene_115_collisions
     0000002B  ___bank_scene_117_collisions       scene_117_collisions
     0000002B  ___bank_scene_120_collisions       scene_120_collisions
     0000002B  ___bank_scene_121_collisions       scene_121_collisions
     0000002B  ___bank_scene_123_collisions       scene_123_collisions
     0000002B  ___bank_scene_24_collisions        scene_24_collisions
     0000002B  ___bank_scene_26_collisions        scene_26_collisions
     0000002B  ___bank_scene_29_collisions        scene_29_collisions
     0000002B  ___bank_script_s101_init           
     0000002B  ___bank_script_s103t0_interact     
     0000002B  ___bank_spritesheet_8              spritesheet_8
     0000002B  ___bank_tilemap_100                tilemap_100
     0000002B  ___bank_tilemap_101                tilemap_101
     0000002B  ___bank_tilemap_102                tilemap_102
     0000002B  ___bank_tilemap_73                 tilemap_73
     0000002B  ___bank_tilemap_80                 tilemap_80
     0000002B  ___bank_tilemap_92                 tilemap_92
     0000002B  ___bank_tilemap_94                 tilemap_94
     0000002B  ___bank_tilemap_97                 tilemap_97
     0000002B  ___bank_tilemap_99                 tilemap_99
     0000002B  ___bank_tileset_24                 tileset_24
     0000002B  ___bank_tileset_71                 tileset_71
     0000002B  ___bank_tileset_73                 tileset_73
     0000002B  ___bank_tileset_83                 tileset_83
     0000002B  ___bank_tileset_88                 tileset_88
ASxxxx Linker V03.00 + NoICE + sdld,  page 13.
Hexadecimal  [32-Bits]

Area                                    Addr        Size        Decimal Bytes (Attributes)
--------------------------------        ----        ----        ------- ----- ------------
.  .ABS.                            00000000    00000000 =           0. bytes (ABS,CON)

      Value  Global                              Global Defined In Module
      -----  --------------------------------   ------------------------
     0000002B  ___bank_tileset_91                 tileset_91
     0000002C  ___bank_scene_106_collisions       scene_106_collisions
     0000002C  ___bank_scene_107_collisions       scene_107_collisions
     0000002C  ___bank_scene_113_collisions       scene_113_collisions
     0000002C  ___bank_scene_114_collisions       scene_114_collisions
     0000002C  ___bank_scene_116_collisions       scene_116_collisions
     0000002C  ___bank_scene_119_collisions       scene_119_collisions
     0000002C  ___bank_scene_122_collisions       scene_122_collisions
     0000002C  ___bank_scene_125_collisions       scene_125_collisions
     0000002C  ___bank_scene_126_collisions       scene_126_collisions
     0000002C  ___bank_scene_127_collisions       scene_127_collisions
     0000002C  ___bank_scene_128_collisions       scene_128_collisions
     0000002C  ___bank_scene_129_collisions       scene_129_collisions
     0000002C  ___bank_scene_130_collisions       scene_130_collisions
     0000002C  ___bank_scene_131_collisions       scene_131_collisions
     0000002C  ___bank_scene_132_collisions       scene_132_collisions
     0000002C  ___bank_scene_133_collisions       scene_133_collisions
     0000002C  ___bank_scene_134_collisions       scene_134_collisions
     0000002C  ___bank_scene_135_collisions       scene_135_collisions
     0000002C  ___bank_scene_136_collisions       scene_136_collisions
     0000002C  ___bank_scene_137_collisions       scene_137_collisions
     0000002C  ___bank_scene_138_collisions       scene_138_collisions
     0000002C  ___bank_scene_139_collisions       scene_139_collisions
     0000002C  ___bank_scene_13_collisions        scene_13_collisions
     0000002C  ___bank_scene_140_collisions       scene_140_collisions
     0000002C  ___bank_scene_141_collisions       scene_141_collisions
     0000002C  ___bank_scene_142_collisions       scene_142_collisions
     0000002C  ___bank_scene_143_collisions       scene_143_collisions
     0000002C  ___bank_scene_144_collisions       scene_144_collisions
     0000002C  ___bank_scene_145_collisions       scene_145_collisions
     0000002C  ___bank_scene_15_sprites           scene_15_sprites
     0000002C  ___bank_scene_1_collisions         scene_1_collisions
     0000002C  ___bank_scene_21_collisions        scene_21_collisions
     0000002C  ___bank_scene_2_collisions         scene_2_collisions
     0000002C  ___bank_scene_5_collisions         scene_5_collisions
     0000002C  ___bank_scene_63_collisions        scene_63_collisions
     0000002C  ___bank_scene_65_collisions        scene_65_collisions
     0000002C  ___bank_script_s133_init           
     0000002C  ___bank_spritesheet_16             spritesheet_16
     0000002C  ___bank_tilemap_125                tilemap_125
     0000002C  ___bank_tilemap_126                tilemap_126
     0000002C  ___bank_tilemap_85                 tilemap_85
     0000002C  ___bank_tileset_26                 tileset_26
     0000002C  ___bank_tileset_68                 tileset_68
     0000002C  ___bank_tileset_92                 tileset_92
     0000002C  l__HEADER4                      
     0000002D  ___bank_scene_110_sprites          scene_110_sprites
     0000002D  ___bank_scene_67_collisions        scene_67_collisions
     0000002D  ___bank_scene_76_collisions        scene_76_collisions
     0000002D  ___bank_scene_81_collisions        scene_81_collisions
     0000002D  ___bank_scene_86_collisions        scene_86_collisions
ASxxxx Linker V03.00 + NoICE + sdld,  page 14.
Hexadecimal  [32-Bits]

Area                                    Addr        Size        Decimal Bytes (Attributes)
--------------------------------        ----        ----        ------- ----- ------------
.  .ABS.                            00000000    00000000 =           0. bytes (ABS,CON)

      Value  Global                              Global Defined In Module
      -----  --------------------------------   ------------------------
     0000002D  ___bank_scene_90_collisions        scene_90_collisions
     0000002D  ___bank_scene_91_collisions        scene_91_collisions
     0000002D  ___bank_scene_92_collisions        scene_92_collisions
     0000002D  ___bank_scene_93_collisions        scene_93_collisions
     0000002D  ___bank_scene_94_collisions        scene_94_collisions
     0000002D  ___bank_scene_95_collisions        scene_95_collisions
     0000002D  ___bank_scene_96_collisions        scene_96_collisions
     0000002D  ___bank_scene_97_collisions        scene_97_collisions
     0000002D  ___bank_scene_98_collisions        scene_98_collisions
     0000002D  ___bank_script_s115_init           
     0000002D  ___bank_tilemap_103                tilemap_103
     0000002D  ___bank_tilemap_104                tilemap_104
     0000002D  ___bank_tilemap_105                tilemap_105
     0000002D  ___bank_tilemap_106                tilemap_106
     0000002D  ___bank_tilemap_108                tilemap_108
     0000002D  ___bank_tilemap_109                tilemap_109
     0000002D  ___bank_tilemap_127                tilemap_127
     0000002D  ___bank_tilemap_24                 tilemap_24
     0000002D  ___bank_tilemap_25                 tilemap_25
     0000002D  ___bank_tilemap_26                 tilemap_26
     0000002D  ___bank_tilemap_27                 tilemap_27
     0000002D  ___bank_tilemap_28                 tilemap_28
     0000002D  ___bank_tilemap_29                 tilemap_29
     0000002D  ___bank_tilemap_30                 tilemap_30
     0000002D  ___bank_tilemap_31                 tilemap_31
     0000002D  ___bank_tilemap_32                 tilemap_32
     0000002D  ___bank_tilemap_33                 tilemap_33
     0000002D  ___bank_tilemap_34                 tilemap_34
     0000002D  ___bank_tilemap_35                 tilemap_35
     0000002D  ___bank_tilemap_37                 tilemap_37
     0000002D  ___bank_tilemap_38                 tilemap_38
     0000002D  ___bank_tilemap_39                 tilemap_39
     0000002D  ___bank_tilemap_40                 tilemap_40
     0000002D  ___bank_tilemap_41                 tilemap_41
     0000002D  ___bank_tilemap_42                 tilemap_42
     0000002D  ___bank_tilemap_43                 tilemap_43
     0000002D  ___bank_tilemap_44                 tilemap_44
     0000002D  ___bank_tilemap_46                 tilemap_46
     0000002D  ___bank_tilemap_52                 tilemap_52
     0000002D  ___bank_tilemap_56                 tilemap_56
     0000002D  ___bank_tilemap_62                 tilemap_62
     0000002D  ___bank_tilemap_68                 tilemap_68
     0000002E  ___bank_frame_image                frame_image
     0000002E  ___bank_scene_10                   scene_10
     0000002E  ___bank_scene_100                  scene_100
     0000002E  ___bank_scene_101                  scene_101
     0000002E  ___bank_scene_106_actors           scene_106_actors
     0000002E  ___bank_scene_107_actors           scene_107_actors
     0000002E  ___bank_scene_10_actors            scene_10_actors
     0000002E  ___bank_scene_112_actors           scene_112_actors
     0000002E  ___bank_scene_114_actors           scene_114_actors
ASxxxx Linker V03.00 + NoICE + sdld,  page 15.
Hexadecimal  [32-Bits]

Area                                    Addr        Size        Decimal Bytes (Attributes)
--------------------------------        ----        ----        ------- ----- ------------
.  .ABS.                            00000000    00000000 =           0. bytes (ABS,CON)

      Value  Global                              Global Defined In Module
      -----  --------------------------------   ------------------------
     0000002E  ___bank_scene_11_actors            scene_11_actors
     0000002E  ___bank_scene_123_actors           scene_123_actors
     0000002E  ___bank_scene_129_actors           scene_129_actors
     0000002E  ___bank_scene_14_actors            scene_14_actors
     0000002E  ___bank_scene_15_actors            scene_15_actors
     0000002E  ___bank_scene_16_actors            scene_16_actors
     0000002E  ___bank_scene_17_actors            scene_17_actors
     0000002E  ___bank_scene_19_actors            scene_19_actors
     0000002E  ___bank_scene_20_actors            scene_20_actors
     0000002E  ___bank_scene_23_triggers          scene_23_triggers
     0000002E  ___bank_scene_7_actors             scene_7_actors
     0000002E  ___bank_scene_96_actors            scene_96_actors
     0000002E  ___bank_scene_97_actors            scene_97_actors
     0000002E  ___bank_scene_98_actors            scene_98_actors
     0000002E  ___bank_scene_9_actors             scene_9_actors
     0000002E  ___bank_script_engine_init         
     0000002E  ___bank_script_input_10            
     0000002E  ___bank_script_input_11            
     0000002E  ___bank_script_input_12            
     0000002E  ___bank_script_input_6             
     0000002E  ___bank_script_input_8             
     0000002E  ___bank_script_input_9             
     0000002E  ___bank_script_s0_init             
     0000002E  ___bank_script_s100_init           
     0000002E  ___bank_script_s102t0_interact     
     0000002E  ___bank_script_s104t0_interact     
     0000002E  ___bank_script_s105t0_interact     
     0000002E  ___bank_script_s105t1_interact     
     0000002E  ___bank_script_s106_init           
     0000002E  ___bank_script_s107_init           
     0000002E  ___bank_script_s108t2_interact     
     0000002E  ___bank_script_s110_init           
     0000002E  ___bank_script_s110t0_interact     
     0000002E  ___bank_script_s111_init           
     0000002E  ___bank_script_s113_init           
     0000002E  ___bank_script_s114_init           
     0000002E  ___bank_script_s116_init           
     0000002E  ___bank_script_s117t0_interact     
     0000002E  ___bank_script_s119t0_interact     
     0000002E  ___bank_script_s120_init           
     0000002E  ___bank_script_s121_init           
     0000002E  ___bank_script_s122_init           
     0000002E  ___bank_script_s124_init           
     0000002E  ___bank_script_s125_init           
     0000002E  ___bank_script_s126_init           
     0000002E  ___bank_script_s127_init           
     0000002E  ___bank_script_s128_init           
     0000002E  ___bank_script_s129_init           
     0000002E  ___bank_script_s131_init           
     0000002E  ___bank_script_s134_init           
     0000002E  ___bank_script_s135_init           
ASxxxx Linker V03.00 + NoICE + sdld,  page 16.
Hexadecimal  [32-Bits]

Area                                    Addr        Size        Decimal Bytes (Attributes)
--------------------------------        ----        ----        ------- ----- ------------
.  .ABS.                            00000000    00000000 =           0. bytes (ABS,CON)

      Value  Global                              Global Defined In Module
      -----  --------------------------------   ------------------------
     0000002E  ___bank_script_s136_init           
     0000002E  ___bank_script_s137_init           
     0000002E  ___bank_script_s138_init           
     0000002E  ___bank_script_s139_init           
     0000002E  ___bank_script_s140_init           
     0000002E  ___bank_script_s141_init           
     0000002E  ___bank_script_s142_init           
     0000002E  ___bank_script_s143_init           
     0000002E  ___bank_script_s144_init           
     0000002E  ___bank_script_s1_init             
     0000002E  ___bank_script_s90_init            
     0000002E  ___bank_script_s91_init            
     0000002E  ___bank_script_s92_init            
     0000002E  ___bank_script_s93_init            
     0000002E  ___bank_script_s94_init            
     0000002E  ___bank_script_s95_init            
     0000002E  ___bank_script_s96_init            
     0000002E  ___bank_script_s97_init            
     0000002E  ___bank_script_s98_init            
     0000002E  ___bank_script_s99_init            
     0000002E  ___bank_script_s9a2_update         
     0000002E  ___bank_spritesheet_1              spritesheet_1
     0000002E  ___bank_spritesheet_10             spritesheet_10
     0000002E  ___bank_spritesheet_11             spritesheet_11
     0000002E  ___bank_spritesheet_12             spritesheet_12
     0000002E  ___bank_spritesheet_17             spritesheet_17
     0000002E  ___bank_spritesheet_18             spritesheet_18
     0000002E  ___bank_spritesheet_19             spritesheet_19
     0000002E  ___bank_spritesheet_20             spritesheet_20
     0000002E  ___bank_spritesheet_21             spritesheet_21
     0000002E  ___bank_spritesheet_22             spritesheet_22
     0000002E  ___bank_spritesheet_23             spritesheet_23
     0000002E  ___bank_spritesheet_24             spritesheet_24
     0000002E  ___bank_spritesheet_27             spritesheet_27
     0000002E  ___bank_spritesheet_28             spritesheet_28
     0000002E  ___bank_spritesheet_29             spritesheet_29
     0000002E  ___bank_spritesheet_30             spritesheet_30
     0000002E  ___bank_spritesheet_31             spritesheet_31
     0000002E  ___bank_spritesheet_32             spritesheet_32
     0000002E  ___bank_spritesheet_34             spritesheet_34
     0000002E  ___bank_spritesheet_4              spritesheet_4
     0000002E  ___bank_spritesheet_5              spritesheet_5
     0000002E  ___bank_spritesheet_7              spritesheet_7
     0000002E  ___bank_spritesheet_9              spritesheet_9
     0000002E  ___bank_tilemap_72                 tilemap_72
     0000002E  ___bank_tileset_61                 tileset_61
     0000002E  ___bank_tileset_64                 tileset_64
     0000002E  ___bank_tileset_65                 tileset_65
     0000002E  ___bank_tileset_66                 tileset_66
     0000002E  ___bank_tileset_70                 tileset_70
     0000002E  ___bank_tileset_72                 tileset_72
ASxxxx Linker V03.00 + NoICE + sdld,  page 17.
Hexadecimal  [32-Bits]

Area                                    Addr        Size        Decimal Bytes (Attributes)
--------------------------------        ----        ----        ------- ----- ------------
.  .ABS.                            00000000    00000000 =           0. bytes (ABS,CON)

      Value  Global                              Global Defined In Module
      -----  --------------------------------   ------------------------
     0000002E  ___bank_tileset_77                 tileset_77
     0000002E  ___bank_tileset_78                 tileset_78
     0000002E  ___bank_tileset_79                 tileset_79
     0000002E  ___bank_tileset_80                 tileset_80
     0000002E  ___bank_tileset_81                 tileset_81
     0000002E  ___bank_tileset_87                 tileset_87
     0000002E  ___bank_tileset_93                 tileset_93
     0000002E  ___bank_tileset_95                 tileset_95
     0000002E  l__BSS                          
     0000002F  ___bank_scene_101_actors           scene_101_actors
     0000002F  ___bank_scene_102                  scene_102
     0000002F  ___bank_scene_103                  scene_103
     0000002F  ___bank_scene_104                  scene_104
     0000002F  ___bank_scene_104_actors           scene_104_actors
     0000002F  ___bank_scene_105                  scene_105
     0000002F  ___bank_scene_106                  scene_106
     0000002F  ___bank_scene_107                  scene_107
     0000002F  ___bank_scene_108                  scene_108
     0000002F  ___bank_scene_109                  scene_109
     0000002F  ___bank_scene_11                   scene_11
     0000002F  ___bank_scene_110                  scene_110
     0000002F  ___bank_scene_110_actors           scene_110_actors
     0000002F  ___bank_scene_111                  scene_111
     0000002F  ___bank_scene_112                  scene_112
     0000002F  ___bank_scene_113                  scene_113
     0000002F  ___bank_scene_114                  scene_114
     0000002F  ___bank_scene_115                  scene_115
     0000002F  ___bank_scene_115_actors           scene_115_actors
     0000002F  ___bank_scene_116                  scene_116
     0000002F  ___bank_scene_116_actors           scene_116_actors
     0000002F  ___bank_scene_117                  scene_117
     0000002F  ___bank_scene_118                  scene_118
     0000002F  ___bank_scene_119                  scene_119
     0000002F  ___bank_scene_12                   scene_12
     0000002F  ___bank_scene_120                  scene_120
     0000002F  ___bank_scene_120_actors           scene_120_actors
     0000002F  ___bank_scene_121                  scene_121
     0000002F  ___bank_scene_122                  scene_122
     0000002F  ___bank_scene_123                  scene_123
     0000002F  ___bank_scene_124                  scene_124
     0000002F  ___bank_scene_125                  scene_125
     0000002F  ___bank_scene_126                  scene_126
     0000002F  ___bank_scene_127                  scene_127
     0000002F  ___bank_scene_128                  scene_128
     0000002F  ___bank_scene_129                  scene_129
     0000002F  ___bank_scene_12_actors            scene_12_actors
     0000002F  ___bank_scene_13                   scene_13
     0000002F  ___bank_scene_130                  scene_130
     0000002F  ___bank_scene_130_actors           scene_130_actors
     0000002F  ___bank_scene_131                  scene_131
     0000002F  ___bank_scene_132                  scene_132
ASxxxx Linker V03.00 + NoICE + sdld,  page 18.
Hexadecimal  [32-Bits]

Area                                    Addr        Size        Decimal Bytes (Attributes)
--------------------------------        ----        ----        ------- ----- ------------
.  .ABS.                            00000000    00000000 =           0. bytes (ABS,CON)

      Value  Global                              Global Defined In Module
      -----  --------------------------------   ------------------------
     0000002F  ___bank_scene_133                  scene_133
     0000002F  ___bank_scene_134                  scene_134
     0000002F  ___bank_scene_135                  scene_135
     0000002F  ___bank_scene_136                  scene_136
     0000002F  ___bank_scene_137                  scene_137
     0000002F  ___bank_scene_138                  scene_138
     0000002F  ___bank_scene_139                  scene_139
     0000002F  ___bank_scene_13_actors            scene_13_actors
     0000002F  ___bank_scene_14                   scene_14
     0000002F  ___bank_scene_140                  scene_140
     0000002F  ___bank_scene_141                  scene_141
     0000002F  ___bank_scene_142                  scene_142
     0000002F  ___bank_scene_143                  scene_143
     0000002F  ___bank_scene_144                  scene_144
     0000002F  ___bank_scene_145                  scene_145
     0000002F  ___bank_scene_15                   scene_15
     0000002F  ___bank_scene_16                   scene_16
     0000002F  ___bank_scene_17                   scene_17
     0000002F  ___bank_scene_18                   scene_18
     0000002F  ___bank_scene_18_actors            scene_18_actors
     0000002F  ___bank_scene_19                   scene_19
     0000002F  ___bank_scene_2                    scene_2
     0000002F  ___bank_scene_20                   scene_20
     0000002F  ___bank_scene_21                   scene_21
     0000002F  ___bank_scene_21_actors            scene_21_actors
     0000002F  ___bank_scene_22                   scene_22
     0000002F  ___bank_scene_23                   scene_23
     0000002F  ___bank_scene_24                   scene_24
     0000002F  ___bank_scene_25                   scene_25
     0000002F  ___bank_scene_26                   scene_26
     0000002F  ___bank_scene_27                   scene_27
     0000002F  ___bank_scene_28                   scene_28
     0000002F  ___bank_scene_29                   scene_29
     0000002F  ___bank_scene_3                    scene_3
     0000002F  ___bank_scene_30                   scene_30
     0000002F  ___bank_scene_31                   scene_31
     0000002F  ___bank_scene_32                   scene_32
     0000002F  ___bank_scene_33                   scene_33
     0000002F  ___bank_scene_34                   scene_34
     0000002F  ___bank_scene_35                   scene_35
     0000002F  ___bank_scene_36                   scene_36
     0000002F  ___bank_scene_37                   scene_37
     0000002F  ___bank_scene_38                   scene_38
     0000002F  ___bank_scene_39                   scene_39
     0000002F  ___bank_scene_4                    scene_4
     0000002F  ___bank_scene_40                   scene_40
     0000002F  ___bank_scene_41                   scene_41
     0000002F  ___bank_scene_42                   scene_42
     0000002F  ___bank_scene_43                   scene_43
     0000002F  ___bank_scene_44                   scene_44
     0000002F  ___bank_scene_45                   scene_45
ASxxxx Linker V03.00 + NoICE + sdld,  page 19.
Hexadecimal  [32-Bits]

Area                                    Addr        Size        Decimal Bytes (Attributes)
--------------------------------        ----        ----        ------- ----- ------------
.  .ABS.                            00000000    00000000 =           0. bytes (ABS,CON)

      Value  Global                              Global Defined In Module
      -----  --------------------------------   ------------------------
     0000002F  ___bank_scene_46                   scene_46
     0000002F  ___bank_scene_47                   scene_47
     0000002F  ___bank_scene_48                   scene_48
     0000002F  ___bank_scene_49                   scene_49
     0000002F  ___bank_scene_4_actors             scene_4_actors
     0000002F  ___bank_scene_5                    scene_5
     0000002F  ___bank_scene_50                   scene_50
     0000002F  ___bank_scene_51                   scene_51
     0000002F  ___bank_scene_52                   scene_52
     0000002F  ___bank_scene_53                   scene_53
     0000002F  ___bank_scene_54                   scene_54
     0000002F  ___bank_scene_55                   scene_55
     0000002F  ___bank_scene_56                   scene_56
     0000002F  ___bank_scene_57                   scene_57
     0000002F  ___bank_scene_58                   scene_58
     0000002F  ___bank_scene_59                   scene_59
     0000002F  ___bank_scene_5_actors             scene_5_actors
     0000002F  ___bank_scene_6                    scene_6
     0000002F  ___bank_scene_60                   scene_60
     0000002F  ___bank_scene_61                   scene_61
     0000002F  ___bank_scene_62                   scene_62
     0000002F  ___bank_scene_63                   scene_63
     0000002F  ___bank_scene_64                   scene_64
     0000002F  ___bank_scene_65                   scene_65
     0000002F  ___bank_scene_66                   scene_66
     0000002F  ___bank_scene_67                   scene_67
     0000002F  ___bank_scene_68                   scene_68
     0000002F  ___bank_scene_69                   scene_69
     0000002F  ___bank_scene_6_actors             scene_6_actors
     0000002F  ___bank_scene_7                    scene_7
     0000002F  ___bank_scene_70                   scene_70
     0000002F  ___bank_scene_71                   scene_71
     0000002F  ___bank_scene_72                   scene_72
     0000002F  ___bank_scene_73                   scene_73
     0000002F  ___bank_scene_74                   scene_74
     0000002F  ___bank_scene_75                   scene_75
     0000002F  ___bank_scene_76                   scene_76
     0000002F  ___bank_scene_77                   scene_77
     0000002F  ___bank_scene_78                   scene_78
     0000002F  ___bank_scene_79                   scene_79
     0000002F  ___bank_scene_8                    scene_8
     0000002F  ___bank_scene_80                   scene_80
     0000002F  ___bank_scene_81                   scene_81
     0000002F  ___bank_scene_82                   scene_82
     0000002F  ___bank_scene_83                   scene_83
     0000002F  ___bank_scene_84                   scene_84
     0000002F  ___bank_scene_85                   scene_85
     0000002F  ___bank_scene_85_triggers          scene_85_triggers
     0000002F  ___bank_scene_86                   scene_86
     0000002F  ___bank_scene_87                   scene_87
     0000002F  ___bank_scene_88                   scene_88
ASxxxx Linker V03.00 + NoICE + sdld,  page 20.
Hexadecimal  [32-Bits]

Area                                    Addr        Size        Decimal Bytes (Attributes)
--------------------------------        ----        ----        ------- ----- ------------
.  .ABS.                            00000000    00000000 =           0. bytes (ABS,CON)

      Value  Global                              Global Defined In Module
      -----  --------------------------------   ------------------------
     0000002F  ___bank_scene_89                   scene_89
     0000002F  ___bank_scene_8_actors             scene_8_actors
     0000002F  ___bank_scene_9                    scene_9
     0000002F  ___bank_scene_90                   scene_90
     0000002F  ___bank_scene_90_actors            scene_90_actors
     0000002F  ___bank_scene_91                   scene_91
     0000002F  ___bank_scene_91_actors            scene_91_actors
     0000002F  ___bank_scene_92                   scene_92
     0000002F  ___bank_scene_93                   scene_93
     0000002F  ___bank_scene_94                   scene_94
     0000002F  ___bank_scene_95                   scene_95
     0000002F  ___bank_scene_96                   scene_96
     0000002F  ___bank_scene_97                   scene_97
     0000002F  ___bank_scene_98                   scene_98
     0000002F  ___bank_scene_99                   scene_99
     0000002F  ___bank_scene_99_actors            scene_99_actors
     0000002F  ___bank_script_input_2             
     0000002F  ___bank_script_s103t1_interact     
     0000002F  ___bank_script_s104t1_interact     
     0000002F  ___bank_script_s104t2_interact     
     0000002F  ___bank_script_s108t0_interact     
     0000002F  ___bank_script_s108t1_interact     
     0000002F  ___bank_script_s109t0_interact     
     0000002F  ___bank_script_s109t1_interact     
     0000002F  ___bank_script_s10t0_interact      
     0000002F  ___bank_script_s10t1_interact      
     0000002F  ___bank_script_s111t0_interact     
     0000002F  ___bank_script_s118t0_interact     
     0000002F  ___bank_script_s11t0_interact      
     0000002F  ___bank_script_s11t1_interact      
     0000002F  ___bank_script_s11t2_interact      
     0000002F  ___bank_script_s12t0_interact      
     0000002F  ___bank_script_s12t1_interact      
     0000002F  ___bank_script_s13t0_interact      
     0000002F  ___bank_script_s13t1_interact      
     0000002F  ___bank_script_s14t0_interact      
     0000002F  ___bank_script_s14t1_interact      
     0000002F  ___bank_script_s15t0_interact      
     0000002F  ___bank_script_s15t1_interact      
     0000002F  ___bank_script_s16t0_interact      
     0000002F  ___bank_script_s16t1_interact      
     0000002F  ___bank_script_s17t0_interact      
     0000002F  ___bank_script_s17t1_interact      
     0000002F  ___bank_script_s17t2_interact      
     0000002F  ___bank_script_s17t3_interact      
     0000002F  ___bank_script_s17t4_interact      
     0000002F  ___bank_script_s18t0_interact      
     0000002F  ___bank_script_s18t1_interact      
     0000002F  ___bank_script_s19t0_interact      
     0000002F  ___bank_script_s19t1_interact      
     0000002F  ___bank_script_s20t0_interact      
ASxxxx Linker V03.00 + NoICE + sdld,  page 21.
Hexadecimal  [32-Bits]

Area                                    Addr        Size        Decimal Bytes (Attributes)
--------------------------------        ----        ----        ------- ----- ------------
.  .ABS.                            00000000    00000000 =           0. bytes (ABS,CON)

      Value  Global                              Global Defined In Module
      -----  --------------------------------   ------------------------
     0000002F  ___bank_script_s20t1_interact      
     0000002F  ___bank_script_s21t0_interact      
     0000002F  ___bank_script_s21t1_interact      
     0000002F  ___bank_script_s21t2_interact      
     0000002F  ___bank_script_s23t0_interact      
     0000002F  ___bank_script_s23t1_interact      
     0000002F  ___bank_script_s23t2_interact      
     0000002F  ___bank_script_s23t3_interact      
     0000002F  ___bank_script_s23t4_interact      
     0000002F  ___bank_script_s23t5_interact      
     0000002F  ___bank_script_s23t6_interact      
     0000002F  ___bank_script_s23t7_interact      
     0000002F  ___bank_script_s23t8_interact      
     0000002F  ___bank_script_s24t0_interact      
     0000002F  ___bank_script_s25t0_interact      
     0000002F  ___bank_script_s25t1_interact      
     0000002F  ___bank_script_s26t0_interact      
     0000002F  ___bank_script_s26t1_interact      
     0000002F  ___bank_script_s27t0_interact      
     0000002F  ___bank_script_s27t1_interact      
     0000002F  ___bank_script_s28t0_interact      
     0000002F  ___bank_script_s29t0_interact      
     0000002F  ___bank_script_s29t1_interact      
     0000002F  ___bank_script_s30t0_interact      
     0000002F  ___bank_script_s31t0_interact      
     0000002F  ___bank_script_s31t1_interact      
     0000002F  ___bank_script_s32t0_interact      
     0000002F  ___bank_script_s32t1_interact      
     0000002F  ___bank_script_s32t2_interact      
     0000002F  ___bank_script_s33t0_interact      
     0000002F  ___bank_script_s33t1_interact      
     0000002F  ___bank_script_s34t0_interact      
     0000002F  ___bank_script_s34t1_interact      
     0000002F  ___bank_script_s35t0_interact      
     0000002F  ___bank_script_s36t0_interact      
     0000002F  ___bank_script_s36t1_interact      
     0000002F  ___bank_script_s37t0_interact      
     0000002F  ___bank_script_s38t0_interact      
     0000002F  ___bank_script_s39t0_interact      
     0000002F  ___bank_script_s40t0_interact      
     0000002F  ___bank_script_s40t1_interact      
     0000002F  ___bank_script_s41t0_interact      
     0000002F  ___bank_script_s42t0_interact      
     0000002F  ___bank_script_s42t1_interact      
     0000002F  ___bank_script_s42t2_interact      
     0000002F  ___bank_script_s4t0_interact       
     0000002F  ___bank_script_s5t0_interact       
     0000002F  ___bank_script_s63t0_interact      
     0000002F  ___bank_script_s64t0_interact      
     0000002F  ___bank_script_s64t1_interact      
     0000002F  ___bank_script_s65t0_interact      
ASxxxx Linker V03.00 + NoICE + sdld,  page 22.
Hexadecimal  [32-Bits]

Area                                    Addr        Size        Decimal Bytes (Attributes)
--------------------------------        ----        ----        ------- ----- ------------
.  .ABS.                            00000000    00000000 =           0. bytes (ABS,CON)

      Value  Global                              Global Defined In Module
      -----  --------------------------------   ------------------------
     0000002F  ___bank_script_s65t1_interact      
     0000002F  ___bank_script_s66t0_interact      
     0000002F  ___bank_script_s66t1_interact      
     0000002F  ___bank_script_s66t2_interact      
     0000002F  ___bank_script_s67t0_interact      
     0000002F  ___bank_script_s67t1_interact      
     0000002F  ___bank_script_s68t0_interact      
     0000002F  ___bank_script_s68t1_interact      
     0000002F  ___bank_script_s68t2_interact      
     0000002F  ___bank_script_s69t0_interact      
     0000002F  ___bank_script_s69t1_interact      
     0000002F  ___bank_script_s6t0_interact       
     0000002F  ___bank_script_s6t1_interact       
     0000002F  ___bank_script_s6t2_interact       
     0000002F  ___bank_script_s6t3_interact       
     0000002F  ___bank_script_s70t0_interact      
     0000002F  ___bank_script_s70t1_interact      
     0000002F  ___bank_script_s70t2_interact      
     0000002F  ___bank_script_s70t3_interact      
     0000002F  ___bank_script_s70t4_interact      
     0000002F  ___bank_script_s70t5_interact      
     0000002F  ___bank_script_s71t0_interact      
     0000002F  ___bank_script_s71t1_interact      
     0000002F  ___bank_script_s71t2_interact      
     0000002F  ___bank_script_s71t3_interact      
     0000002F  ___bank_script_s72t0_interact      
     0000002F  ___bank_script_s72t1_interact      
     0000002F  ___bank_script_s73t0_interact      
     0000002F  ___bank_script_s73t1_interact      
     0000002F  ___bank_script_s74t0_interact      
     0000002F  ___bank_script_s74t1_interact      
     0000002F  ___bank_script_s75t0_interact      
     0000002F  ___bank_script_s75t1_interact      
     0000002F  ___bank_script_s76t0_interact      
     0000002F  ___bank_script_s76t1_interact      
     0000002F  ___bank_script_s78t0_interact      
     0000002F  ___bank_script_s78t1_interact      
     0000002F  ___bank_script_s79t0_interact      
     0000002F  ___bank_script_s7t0_interact       
     0000002F  ___bank_script_s7t1_interact       
     0000002F  ___bank_script_s7t2_interact       
     0000002F  ___bank_script_s80t0_interact      
     0000002F  ___bank_script_s80t1_interact      
     0000002F  ___bank_script_s81t0_interact      
     0000002F  ___bank_script_s82t0_interact      
     0000002F  ___bank_script_s82t1_interact      
     0000002F  ___bank_script_s83t0_interact      
     0000002F  ___bank_script_s83t1_interact      
     0000002F  ___bank_script_s84t0_interact      
     0000002F  ___bank_script_s84t1_interact      
     0000002F  ___bank_script_s84t2_interact      
ASxxxx Linker V03.00 + NoICE + sdld,  page 23.
Hexadecimal  [32-Bits]

Area                                    Addr        Size        Decimal Bytes (Attributes)
--------------------------------        ----        ----        ------- ----- ------------
.  .ABS.                            00000000    00000000 =           0. bytes (ABS,CON)

      Value  Global                              Global Defined In Module
      -----  --------------------------------   ------------------------
     0000002F  ___bank_script_s84t3_interact      
     0000002F  ___bank_script_s85t0_interact      
     0000002F  ___bank_script_s85t1_interact      
     0000002F  ___bank_script_s85t2_interact      
     0000002F  ___bank_script_s85t3_interact      
     0000002F  ___bank_script_s85t4_interact      
     0000002F  ___bank_script_s86t0_interact      
     0000002F  ___bank_script_s87t0_interact      
     0000002F  ___bank_script_s87t1_interact      
     0000002F  ___bank_script_s88t0_interact      
     0000002F  ___bank_script_s88t1_interact      
     0000002F  ___bank_script_s88t2_interact      
     0000002F  ___bank_script_s89t0_interact      
     0000002F  ___bank_script_s89t1_interact      
     0000002F  ___bank_script_s89t2_interact      
     0000002F  ___bank_script_s89t3_interact      
     0000002F  ___bank_script_s89t4_interact      
     0000002F  ___bank_script_s8t0_interact       
     0000002F  ___bank_script_s8t1_interact       
     0000002F  ___bank_script_s9t0_interact       
     0000002F  ___bank_script_s9t1_interact       
     0000002F  ___bank_spritesheet_0              spritesheet_0
     0000002F  ___bank_spritesheet_13             spritesheet_13
     0000002F  ___bank_spritesheet_26             spritesheet_26
     0000002F  ___bank_spritesheet_3              spritesheet_3
     00000030  ___bank_background_101             background_101
     00000030  ___bank_background_102             background_102
     00000030  ___bank_background_103             background_103
     00000030  ___bank_background_104             background_104
     00000030  ___bank_background_105             background_105
     00000030  ___bank_background_106             background_106
     00000030  ___bank_background_107             background_107
     00000030  ___bank_background_108             background_108
     00000030  ___bank_background_109             background_109
     00000030  ___bank_background_11              background_11
     00000030  ___bank_background_110             background_110
     00000030  ___bank_background_111             background_111
     00000030  ___bank_background_112             background_112
     00000030  ___bank_background_113             background_113
     00000030  ___bank_background_114             background_114
     00000030  ___bank_background_115             background_115
     00000030  ___bank_background_116             background_116
     00000030  ___bank_background_117             background_117
     00000030  ___bank_background_118             background_118
     00000030  ___bank_background_119             background_119
     00000030  ___bank_background_12              background_12
     00000030  ___bank_background_120             background_120
     00000030  ___bank_background_121             background_121
     00000030  ___bank_background_122             background_122
     00000030  ___bank_background_123             background_123
     00000030  ___bank_background_124             background_124
ASxxxx Linker V03.00 + NoICE + sdld,  page 24.
Hexadecimal  [32-Bits]

Area                                    Addr        Size        Decimal Bytes (Attributes)
--------------------------------        ----        ----        ------- ----- ------------
.  .ABS.                            00000000    00000000 =           0. bytes (ABS,CON)

      Value  Global                              Global Defined In Module
      -----  --------------------------------   ------------------------
     00000030  ___bank_background_125             background_125
     00000030  ___bank_background_126             background_126
     00000030  ___bank_background_127             background_127
     00000030  ___bank_background_128             background_128
     00000030  ___bank_background_129             background_129
     00000030  ___bank_background_13              background_13
     00000030  ___bank_background_130             background_130
     00000030  ___bank_background_131             background_131
     00000030  ___bank_background_132             background_132
     00000030  ___bank_background_133             background_133
     00000030  ___bank_background_134             background_134
     00000030  ___bank_background_135             background_135
     00000030  ___bank_background_136             background_136
     00000030  ___bank_background_137             background_137
     00000030  ___bank_background_14              background_14
     00000030  ___bank_background_15              background_15
     00000030  ___bank_background_16              background_16
     00000030  ___bank_background_17              background_17
     00000030  ___bank_background_18              background_18
     00000030  ___bank_background_19              background_19
     00000030  ___bank_background_2               background_2
     00000030  ___bank_background_20              background_20
     00000030  ___bank_background_21              background_21
     00000030  ___bank_background_22              background_22
     00000030  ___bank_background_23              background_23
     00000030  ___bank_background_24              background_24
     00000030  ___bank_background_25              background_25
     00000030  ___bank_background_26              background_26
     00000030  ___bank_background_27              background_27
     00000030  ___bank_background_28              background_28
     00000030  ___bank_background_29              background_29
     00000030  ___bank_background_3               background_3
     00000030  ___bank_background_30              background_30
     00000030  ___bank_background_31              background_31
     00000030  ___bank_background_32              background_32
     00000030  ___bank_background_33              background_33
     00000030  ___bank_background_34              background_34
     00000030  ___bank_background_35              background_35
     00000030  ___bank_background_36              background_36
     00000030  ___bank_background_37              background_37
     00000030  ___bank_background_38              background_38
     00000030  ___bank_background_39              background_39
     00000030  ___bank_background_4               background_4
     00000030  ___bank_background_40              background_40
     00000030  ___bank_background_41              background_41
     00000030  ___bank_background_42              background_42
     00000030  ___bank_background_43              background_43
     00000030  ___bank_background_44              background_44
     00000030  ___bank_background_45              background_45
     00000030  ___bank_background_46              background_46
     00000030  ___bank_background_47              background_47
ASxxxx Linker V03.00 + NoICE + sdld,  page 25.
Hexadecimal  [32-Bits]

Area                                    Addr        Size        Decimal Bytes (Attributes)
--------------------------------        ----        ----        ------- ----- ------------
.  .ABS.                            00000000    00000000 =           0. bytes (ABS,CON)

      Value  Global                              Global Defined In Module
      -----  --------------------------------   ------------------------
     00000030  ___bank_background_48              background_48
     00000030  ___bank_background_49              background_49
     00000030  ___bank_background_5               background_5
     00000030  ___bank_background_50              background_50
     00000030  ___bank_background_51              background_51
     00000030  ___bank_background_52              background_52
     00000030  ___bank_background_53              background_53
     00000030  ___bank_background_54              background_54
     00000030  ___bank_background_55              background_55
     00000030  ___bank_background_56              background_56
     00000030  ___bank_background_57              background_57
     00000030  ___bank_background_58              background_58
     00000030  ___bank_background_59              background_59
     00000030  ___bank_background_6               background_6
     00000030  ___bank_background_60              background_60
     00000030  ___bank_background_61              background_61
     00000030  ___bank_background_62              background_62
     00000030  ___bank_background_63              background_63
     00000030  ___bank_background_64              background_64
     00000030  ___bank_background_65              background_65
     00000030  ___bank_background_66              background_66
     00000030  ___bank_background_67              background_67
     00000030  ___bank_background_68              background_68
     00000030  ___bank_background_69              background_69
     00000030  ___bank_background_7               background_7
     00000030  ___bank_background_70              background_70
     00000030  ___bank_background_71              background_71
     00000030  ___bank_background_72              background_72
     00000030  ___bank_background_73              background_73
     00000030  ___bank_background_74              background_74
     00000030  ___bank_background_75              background_75
     00000030  ___bank_background_76              background_76
     00000030  ___bank_background_77              background_77
     00000030  ___bank_background_78              background_78
     00000030  ___bank_background_79              background_79
     00000030  ___bank_background_8               background_8
     00000030  ___bank_background_80              background_80
     00000030  ___bank_background_81              background_81
     00000030  ___bank_background_82              background_82
     00000030  ___bank_background_83              background_83
     00000030  ___bank_background_84              background_84
     00000030  ___bank_background_85              background_85
     00000030  ___bank_background_86              background_86
     00000030  ___bank_background_87              background_87
     00000030  ___bank_background_88              background_88
     00000030  ___bank_background_89              background_89
     00000030  ___bank_background_9               background_9
     00000030  ___bank_background_90              background_90
     00000030  ___bank_background_91              background_91
     00000030  ___bank_background_92              background_92
     00000030  ___bank_background_93              background_93
ASxxxx Linker V03.00 + NoICE + sdld,  page 26.
Hexadecimal  [32-Bits]

Area                                    Addr        Size        Decimal Bytes (Attributes)
--------------------------------        ----        ----        ------- ----- ------------
.  .ABS.                            00000000    00000000 =           0. bytes (ABS,CON)

      Value  Global                              Global Defined In Module
      -----  --------------------------------   ------------------------
     00000030  ___bank_background_94              background_94
     00000030  ___bank_background_95              background_95
     00000030  ___bank_background_96              background_96
     00000030  ___bank_background_97              background_97
     00000030  ___bank_background_98              background_98
     00000030  ___bank_background_99              background_99
     00000030  ___bank_bootstrap_script           
     00000030  ___bank_scene_103_triggers         scene_103_triggers
     00000030  ___bank_scene_105_triggers         scene_105_triggers
     00000030  ___bank_scene_109_triggers         scene_109_triggers
     00000030  ___bank_scene_114_sprites          scene_114_sprites
     00000030  ___bank_scene_115_sprites          scene_115_sprites
     00000030  ___bank_scene_116_sprites          scene_116_sprites
     00000030  ___bank_scene_117_triggers         scene_117_triggers
     00000030  ___bank_scene_118_triggers         scene_118_triggers
     00000030  ___bank_scene_119_triggers         scene_119_triggers
     00000030  ___bank_scene_120_sprites          scene_120_sprites
     00000030  ___bank_scene_129_sprites          scene_129_sprites
     00000030  ___bank_scene_12_sprites           scene_12_sprites
     00000030  ___bank_scene_12_triggers          scene_12_triggers
     00000030  ___bank_scene_130_sprites          scene_130_sprites
     00000030  ___bank_scene_13_sprites           scene_13_sprites
     00000030  ___bank_scene_13_triggers          scene_13_triggers
     00000030  ___bank_scene_14_triggers          scene_14_triggers
     00000030  ___bank_scene_15_triggers          scene_15_triggers
     00000030  ___bank_scene_16_triggers          scene_16_triggers
     00000030  ___bank_scene_17_sprites           scene_17_sprites
     00000030  ___bank_scene_18_sprites           scene_18_sprites
     00000030  ___bank_scene_18_triggers          scene_18_triggers
     00000030  ___bank_scene_19_sprites           scene_19_sprites
     00000030  ___bank_scene_19_triggers          scene_19_triggers
     00000030  ___bank_scene_20_sprites           scene_20_sprites
     00000030  ___bank_scene_20_triggers          scene_20_triggers
     00000030  ___bank_scene_21_sprites           scene_21_sprites
     00000030  ___bank_scene_24_triggers          scene_24_triggers
     00000030  ___bank_scene_25_triggers          scene_25_triggers
     00000030  ___bank_scene_26_triggers          scene_26_triggers
     00000030  ___bank_scene_27_triggers          scene_27_triggers
     00000030  ___bank_scene_28_triggers          scene_28_triggers
     00000030  ___bank_scene_29_triggers          scene_29_triggers
     00000030  ___bank_scene_2_sprites            scene_2_sprites
     00000030  ___bank_scene_30_triggers          scene_30_triggers
     00000030  ___bank_scene_31_triggers          scene_31_triggers
     00000030  ___bank_scene_33_triggers          scene_33_triggers
     00000030  ___bank_scene_34_triggers          scene_34_triggers
     00000030  ___bank_scene_35_triggers          scene_35_triggers
     00000030  ___bank_scene_36_triggers          scene_36_triggers
     00000030  ___bank_scene_37_triggers          scene_37_triggers
     00000030  ___bank_scene_38_triggers          scene_38_triggers
     00000030  ___bank_scene_39_triggers          scene_39_triggers
     00000030  ___bank_scene_40_triggers          scene_40_triggers
ASxxxx Linker V03.00 + NoICE + sdld,  page 27.
Hexadecimal  [32-Bits]

Area                                    Addr        Size        Decimal Bytes (Attributes)
--------------------------------        ----        ----        ------- ----- ------------
.  .ABS.                            00000000    00000000 =           0. bytes (ABS,CON)

      Value  Global                              Global Defined In Module
      -----  --------------------------------   ------------------------
     00000030  ___bank_scene_41_triggers          scene_41_triggers
     00000030  ___bank_scene_42_triggers          scene_42_triggers
     00000030  ___bank_scene_4_sprites            scene_4_sprites
     00000030  ___bank_scene_4_triggers           scene_4_triggers
     00000030  ___bank_scene_5_sprites            scene_5_sprites
     00000030  ___bank_scene_5_triggers           scene_5_triggers
     00000030  ___bank_scene_63_triggers          scene_63_triggers
     00000030  ___bank_scene_64_triggers          scene_64_triggers
     00000030  ___bank_scene_65_triggers          scene_65_triggers
     00000030  ___bank_scene_66_triggers          scene_66_triggers
     00000030  ___bank_scene_67_triggers          scene_67_triggers
     00000030  ___bank_scene_68_triggers          scene_68_triggers
     00000030  ___bank_scene_69_triggers          scene_69_triggers
     00000030  ___bank_scene_6_sprites            scene_6_sprites
     00000030  ___bank_scene_71_triggers          scene_71_triggers
     00000030  ___bank_scene_72_triggers          scene_72_triggers
     00000030  ___bank_scene_73_triggers          scene_73_triggers
     00000030  ___bank_scene_74_triggers          scene_74_triggers
     00000030  ___bank_scene_75_triggers          scene_75_triggers
     00000030  ___bank_scene_76_triggers          scene_76_triggers
     00000030  ___bank_scene_78_triggers          scene_78_triggers
     00000030  ___bank_scene_79_triggers          scene_79_triggers
     00000030  ___bank_scene_7_sprites            scene_7_sprites
     00000030  ___bank_scene_7_triggers           scene_7_triggers
     00000030  ___bank_scene_80_triggers          scene_80_triggers
     00000030  ___bank_scene_81_triggers          scene_81_triggers
     00000030  ___bank_scene_82_triggers          scene_82_triggers
     00000030  ___bank_scene_83_triggers          scene_83_triggers
     00000030  ___bank_scene_84_triggers          scene_84_triggers
     00000030  ___bank_scene_86_triggers          scene_86_triggers
     00000030  ___bank_scene_87_triggers          scene_87_triggers
     00000030  ___bank_scene_88_triggers          scene_88_triggers
     00000030  ___bank_scene_89_triggers          scene_89_triggers
     00000030  ___bank_scene_8_sprites            scene_8_sprites
     00000030  ___bank_scene_8_triggers           scene_8_triggers
     00000030  ___bank_scene_90_sprites           scene_90_sprites
     00000030  ___bank_scene_91_sprites           scene_91_sprites
     00000030  ___bank_scene_96_sprites           scene_96_sprites
     00000030  ___bank_scene_97_sprites           scene_97_sprites
     00000030  ___bank_scene_98_sprites           scene_98_sprites
     00000030  ___bank_scene_99_sprites           scene_99_sprites
     00000030  ___bank_scene_9_sprites            scene_9_sprites
     00000030  ___bank_scene_9_triggers           scene_9_triggers
     00000030  ___bank_script_input_1             
     00000030  ___bank_script_input_3             
     00000030  ___bank_script_input_4             
     00000030  ___bank_script_input_5             
     00000030  ___bank_script_input_7             
     00000030  ___bank_script_s102_init           
     00000030  ___bank_script_s103_init           
     00000030  ___bank_script_s117_init           
ASxxxx Linker V03.00 + NoICE + sdld,  page 28.
Hexadecimal  [32-Bits]

Area                                    Addr        Size        Decimal Bytes (Attributes)
--------------------------------        ----        ----        ------- ----- ------------
.  .ABS.                            00000000    00000000 =           0. bytes (ABS,CON)

      Value  Global                              Global Defined In Module
      -----  --------------------------------   ------------------------
     00000030  ___bank_script_s118_init           
     00000030  ___bank_script_s22_init            
     00000030  ___bank_script_s22t2_interact      
     00000030  ___bank_script_s22t4_interact      
     00000030  ___bank_script_s2_init             
     00000030  ___bank_script_s3_init             
     00000030  ___bank_script_s7a0_update         
     00000030  ___bank_spritesheet_none           spritesheet_none
     00000030  ___bank_tileset_74                 tileset_74
     00000030  l__HEADER6                      
     0000003C  __start_save                    
     00000053  l__GSINIT                       
     0000007F  l__HEADER10                     
     00000200  s__CODE                         
     0000043F  l__BASE                         
     00000BB7  l__CODE                         
     00000D26  l__CODE_48                      
     00000DB7  s__HOME                         
     000012F4  l__DATA                         
     00002000  _rROMB0                            
     000020CE  l__CODE_4                       
     000021A1  l__HOME                         
     00002786  l__CODE_1                       
     00002AF7  l__CODE_3                       
     00002F58  s__BASE                         
     00003000  _rROMB1                            
     00003397  s__CODE_0                       
     00003397  s__INITIALIZER                  
     00003397  s__LIT                          
     000033A4  s__GSINIT                       
     000033F7  s__GSFINAL                      
     00003807  l__CODE_2                       
     00003FFE  l__CODE_17                      
     00003FFE  l__CODE_18                      
     00003FFE  l__CODE_25                      
     00003FFE  l__CODE_28                      
     00003FFE  l__CODE_31                      
     00003FFE  l__CODE_46                      
     00003FFF  l__CODE_13                      
     00003FFF  l__CODE_16                      
     00003FFF  l__CODE_20                      
     00003FFF  l__CODE_21                      
     00003FFF  l__CODE_22                      
     00003FFF  l__CODE_23                      
     00003FFF  l__CODE_27                      
     00003FFF  l__CODE_32                      
     00003FFF  l__CODE_36                      
     00003FFF  l__CODE_38                      
     00003FFF  l__CODE_39                      
     00003FFF  l__CODE_40                      
     00003FFF  l__CODE_44                      
ASxxxx Linker V03.00 + NoICE + sdld,  page 29.
Hexadecimal  [32-Bits]

Area                                    Addr        Size        Decimal Bytes (Attributes)
--------------------------------        ----        ----        ------- ----- ------------
.  .ABS.                            00000000    00000000 =           0. bytes (ABS,CON)

      Value  Global                              Global Defined In Module
      -----  --------------------------------   ------------------------
     00004000  _RTC_SELECT_REG                    vm_rtc
     00004000  _rRAMB                             
     00004000  l__CODE_10                      
     00004000  l__CODE_11                      
     00004000  l__CODE_12                      
     00004000  l__CODE_14                      
     00004000  l__CODE_15                      
     00004000  l__CODE_19                      
     00004000  l__CODE_24                      
     00004000  l__CODE_26                      
     00004000  l__CODE_29                      
     00004000  l__CODE_30                      
     00004000  l__CODE_33                      
     00004000  l__CODE_34                      
     00004000  l__CODE_35                      
     00004000  l__CODE_37                      
     00004000  l__CODE_41                      
     00004000  l__CODE_42                      
     00004000  l__CODE_43                      
     00004000  l__CODE_45                      
     00004000  l__CODE_47                      
     00004000  l__CODE_5                       
     00004000  l__CODE_6                       
     00004000  l__CODE_7                       
     00004000  l__CODE_8                       
     00004000  l__CODE_9                       
     00006000  _RTC_LATCH_REG                     vm_rtc
     00008000  __VRAM                             
     00008000  __VRAM8000                         
     00008800  __VRAM8800                         
     00009000  __VRAM9000                         
     00009800  __SCRN0                            
     00009C00  __SCRN1                            
     0000A000  _RTC_VALUE_REG                     vm_rtc
     0000A000  __SRAM                             
     0000C000  __RAM                              
     0000C000  _shadow_OAM                     
     0000C0A0  s__DATA                         
     0000D000  __RAMBANK                          
     0000D394  s__BSS                          
     0000D3C2  s__INITIALIZED                  
     0000D3CF  s__HEAP                         
     0000DF00  .STACK                          
     0000DF00  _shadow_OAM2                       absolute
     0000DFA0  _BkgPalette                        absolute
     0000DFE0  _vwf_tile_data                     absolute
     0000FE00  __OAMRAM                           
     0000FF00  _P1_REG                            
     0000FF00  __IO                               
     0000FF01  _SB_REG                            
     0000FF02  _SC_REG                            
ASxxxx Linker V03.00 + NoICE + sdld,  page 30.
Hexadecimal  [32-Bits]

Area                                    Addr        Size        Decimal Bytes (Attributes)
--------------------------------        ----        ----        ------- ----- ------------
.  .ABS.                            00000000    00000000 =           0. bytes (ABS,CON)

      Value  Global                              Global Defined In Module
      -----  --------------------------------   ------------------------
     0000FF04  _DIV_REG                           
     0000FF05  _TIMA_REG                          
     0000FF06  _TMA_REG                           
     0000FF07  _TAC_REG                           
     0000FF0F  _IF_REG                            
     0000FF10  _NR10_REG                          
     0000FF11  _NR11_REG                          
     0000FF12  _NR12_REG                          
     0000FF13  _NR13_REG                          
     0000FF14  _NR14_REG                          
     0000FF16  _NR21_REG                          
     0000FF17  _NR22_REG                          
     0000FF18  _NR23_REG                          
     0000FF19  _NR24_REG                          
     0000FF1A  _NR30_REG                          
     0000FF1B  _NR31_REG                          
     0000FF1C  _NR32_REG                          
     0000FF1D  _NR33_REG                          
     0000FF1E  _NR34_REG                          
     0000FF20  _NR41_REG                          
     0000FF21  _NR42_REG                          
     0000FF22  _NR43_REG                          
     0000FF23  _NR44_REG                          
     0000FF24  _NR50_REG                          
     0000FF25  _NR51_REG                          
     0000FF26  _NR52_REG                          
     0000FF30  _PCM_SAMPLE                        
     0000FF30  __AUD3WAVERAM                      
     0000FF40  _LCDC_REG                          
     0000FF41  _STAT_REG                          
     0000FF42  _SCY_REG                           
     0000FF43  _SCX_REG                           
     0000FF44  _LY_REG                            
     0000FF45  _LYC_REG                           
     0000FF46  _DMA_REG                           
     0000FF47  _BGP_REG                           
     0000FF48  _OBP0_REG                          
     0000FF49  _OBP1_REG                          
     0000FF4A  _WY_REG                            
     0000FF4B  _WX_REG                            
     0000FF4D  _KEY1_REG                          
     0000FF4F  _VBK_REG                           
     0000FF51  _HDMA1_REG                         
     0000FF52  _HDMA2_REG                         
     0000FF53  _HDMA3_REG                         
     0000FF54  _HDMA4_REG                         
     0000FF55  _HDMA5_REG                         
     0000FF56  _RP_REG                            
     0000FF68  _BCPS_REG                          
     0000FF69  _BCPD_REG                          
     0000FF6A  _OCPS_REG                          
ASxxxx Linker V03.00 + NoICE + sdld,  page 31.
Hexadecimal  [32-Bits]

Area                                    Addr        Size        Decimal Bytes (Attributes)
--------------------------------        ----        ----        ------- ----- ------------
.  .ABS.                            00000000    00000000 =           0. bytes (ABS,CON)

      Value  Global                              Global Defined In Module
      -----  --------------------------------   ------------------------
     0000FF6B  _OCPD_REG                          
     0000FF70  _SVBK_REG                          
     0000FF76  _PCM12_REG                         
     0000FF77  _PCM34_REG                         
     0000FF80  .refresh_OAM                    
     0000FF80  __HRAM                             
     0000FFFF  _IE_REG                            
     00014000  s__CODE_1                       
     00024000  s__CODE_2                       
     00034000  s__CODE_3                       
     00044000  s__CODE_4                       
     00054000  s__CODE_5                       
     00064000  s__CODE_6                       
     00074000  s__CODE_7                       
     00084000  s__CODE_8                       
     00094000  s__CODE_9                       
     000A4000  s__CODE_10                      
     000B4000  s__CODE_11                      
     000C4000  s__CODE_12                      
     000D4000  s__CODE_13                      
     000E4000  s__CODE_14                      
     000F4000  s__CODE_15                      
     00104000  s__CODE_16                      
     00114000  s__CODE_17                      
     00124000  s__CODE_18                      
     00134000  s__CODE_19                      
     00144000  s__CODE_20                      
     00154000  s__CODE_21                      
     00164000  s__CODE_22                      
     00174000  s__CODE_23                      
     00184000  s__CODE_24                      
     00194000  s__CODE_25                      
     001A4000  s__CODE_26                      
     001B4000  s__CODE_27                      
     001C4000  s__CODE_28                      
     001D4000  s__CODE_29                      
     001E4000  s__CODE_30                      
     001F4000  s__CODE_31                      
     00204000  s__CODE_32                      
     00214000  s__CODE_33                      
     00224000  s__CODE_34                      
     00234000  s__CODE_35                      
     00244000  s__CODE_36                      
     00254000  s__CODE_37                      
     00264000  s__CODE_38                      
     00274000  s__CODE_39                      
     00284000  s__CODE_40                      
     00294000  s__CODE_41                      
     002A4000  s__CODE_42                      
     002B4000  s__CODE_43                      
     002C4000  s__CODE_44                      
ASxxxx Linker V03.00 + NoICE + sdld,  page 32.
Hexadecimal  [32-Bits]

Area                                    Addr        Size        Decimal Bytes (Attributes)
--------------------------------        ----        ----        ------- ----- ------------
.  .ABS.                            00000000    00000000 =           0. bytes (ABS,CON)

      Value  Global                              Global Defined In Module
      -----  --------------------------------   ------------------------
     002D4000  s__CODE_45                      
     002E4000  s__CODE_46                      
     002F4000  s__CODE_47                      
     00304000  s__CODE_48                      
ASxxxx Linker V03.00 + NoICE + sdld,  page 33.
Hexadecimal  [32-Bits]

Area                                    Addr        Size        Decimal Bytes (Attributes)
--------------------------------        ----        ----        ------- ----- ------------
_CODE                               00000200    00000BB7 =        2999. bytes (REL,CON)

      Value  Global                              Global Defined In Module
      -----  --------------------------------   ------------------------
     00000200  _SIO_send_byte                     
     00000213  _SIO_receive                       
     00000224  _hide_hardware_sprites             OAM_utils
     00000250  _SetTile                           
     0000025F  _set_win_tile_xy                   
     00000264  _set_bkg_tile_xy                   
     00000287  _GetWinAddr                        
     0000028F  _GetBkgAddr                        
     0000029D  _state_init                        
     000002A2  _state_update                      
     000002C4  _ui_time_masks                     
     000002CC  _ui_print_shift_char               
     0000034F  _ui_draw_frame_row                 
     00000358  .ui_draw_frame_row                 
     00000381  _script_cmds                       vm_instructions
     0000051F  _start_scene_x                     
     00000521  _start_scene_y                     
     00000523  _start_scene_dir                   
     00000524  _start_scene                       
     00000527  _start_player_move_speed           
     00000528  _start_player_anim_tick            
     00000529  _ui_fonts                          
     0000052C  _core_reset_hook                   main
     00000534  _main                              main
     0000053C  _state_start_fns                   
     0000054E  _state_update_fns                  
     00000560  _hUGE_init_banked                  hUGEDriver_obj
     00000564  _hUGE_init                         hUGEDriver_obj
     0000056F  _hUGE_mute_channel_banked          hUGEDriver_obj
     00000573  _hUGE_mute_channel                 hUGEDriver_obj
     00000580  hUGE_mute_channel                  hUGEDriver_obj
     0000059A  _hUGE_set_position_banked          hUGEDriver_obj
     0000059E  _hUGE_set_position                 hUGEDriver_obj
     000005A7  hUGE_init                          hUGEDriver_obj
     00000814  hUGE_set_position                  hUGEDriver_obj
     000009B2  _hUGE_dosound                      hUGEDriver_obj
     000009B2  _hUGE_dosound_banked               hUGEDriver_obj
     00000CC6  _rand                              
     00000CC6  _randw                             
     00000CF1  .sgb_check                         
     00000CF1  _sgb_check                         
     00000D39  _sgb_transfer                      
     00000D3E  .sgb_transfer                      
     00000D7F  ___move_metasprite                 Metasprites

ASxxxx Linker V03.00 + NoICE + sdld,  page 34.
Hexadecimal  [32-Bits]

Area                                    Addr        Size        Decimal Bytes (Attributes)
--------------------------------        ----        ----        ------- ----- ------------
_HEADER0                            00000000    00000001 =           1. bytes (ABS,CON)

      Value  Global                              Global Defined In Module
      -----  --------------------------------   ------------------------
     00000020  .call_hl                           Runtime

ASxxxx Linker V03.00 + NoICE + sdld,  page 35.
Hexadecimal  [32-Bits]

Area                                    Addr        Size        Decimal Bytes (Attributes)
--------------------------------        ----        ----        ------- ----- ------------
_HEADER1                            00000000    00000005 =           5. bytes (ABS,CON)

      Value  Global                              Global Defined In Module
      -----  --------------------------------   ------------------------
     00000028  .MemsetSmall                       Runtime

ASxxxx Linker V03.00 + NoICE + sdld,  page 36.
Hexadecimal  [32-Bits]

Area                                    Addr        Size        Decimal Bytes (Attributes)
--------------------------------        ----        ----        ------- ----- ------------
_HEADER2                            00000000    00000007 =           7. bytes (ABS,CON)

      Value  Global                              Global Defined In Module
      -----  --------------------------------   ------------------------
     00000030  .MemcpySmall                       Runtime

ASxxxx Linker V03.00 + NoICE + sdld,  page 37.
Hexadecimal  [32-Bits]

Area                                    Addr        Size        Decimal Bytes (Attributes)
--------------------------------        ----        ----        ------- ----- ------------
_HEADER3                            00000000    00000008 =           8. bytes (ABS,CON)

      Value  Global                              Global Defined In Module
      -----  --------------------------------   ------------------------
ASxxxx Linker V03.00 + NoICE + sdld,  page 38.
Hexadecimal  [32-Bits]

Area                                    Addr        Size        Decimal Bytes (Attributes)
--------------------------------        ----        ----        ------- ----- ------------
_HEADER4                            00000000    0000002C =          44. bytes (ABS,CON)

      Value  Global                              Global Defined In Module
      -----  --------------------------------   ------------------------
     00000080  .int                               Runtime
     0000008F  _wait_int_handler                  Runtime
     0000009C  __standard_VBL_handler             Runtime
ASxxxx Linker V03.00 + NoICE + sdld,  page 39.
Hexadecimal  [32-Bits]

Area                                    Addr        Size        Decimal Bytes (Attributes)
--------------------------------        ----        ----        ------- ----- ------------
_HEADER5                            00000000    00000002 =           2. bytes (ABS,CON)

      Value  Global                              Global Defined In Module
      -----  --------------------------------   ------------------------
ASxxxx Linker V03.00 + NoICE + sdld,  page 40.
Hexadecimal  [32-Bits]

Area                                    Addr        Size        Decimal Bytes (Attributes)
--------------------------------        ----        ----        ------- ----- ------------
_HEADER6                            00000000    00000030 =          48. bytes (ABS,CON)

      Value  Global                              Global Defined In Module
      -----  --------------------------------   ------------------------
ASxxxx Linker V03.00 + NoICE + sdld,  page 41.
Hexadecimal  [32-Bits]

Area                                    Addr        Size        Decimal Bytes (Attributes)
--------------------------------        ----        ----        ------- ----- ------------
_HEADER7                            00000000    00000006 =           6. bytes (ABS,CON)

      Value  Global                              Global Defined In Module
      -----  --------------------------------   ------------------------
ASxxxx Linker V03.00 + NoICE + sdld,  page 42.
Hexadecimal  [32-Bits]

Area                                    Addr        Size        Decimal Bytes (Attributes)
--------------------------------        ----        ----        ------- ----- ------------
_HEADER8                            00000000    00000003 =           3. bytes (ABS,CON)

      Value  Global                              Global Defined In Module
      -----  --------------------------------   ------------------------
ASxxxx Linker V03.00 + NoICE + sdld,  page 43.
Hexadecimal  [32-Bits]

Area                                    Addr        Size        Decimal Bytes (Attributes)
--------------------------------        ----        ----        ------- ----- ------------
_HEADER9                            00000000    00000001 =           1. bytes (ABS,CON)

      Value  Global                              Global Defined In Module
      -----  --------------------------------   ------------------------
ASxxxx Linker V03.00 + NoICE + sdld,  page 44.
Hexadecimal  [32-Bits]

Area                                    Addr        Size        Decimal Bytes (Attributes)
--------------------------------        ----        ----        ------- ----- ------------
_HEADERa                            00000000    00000001 =           1. bytes (ABS,CON)

      Value  Global                              Global Defined In Module
      -----  --------------------------------   ------------------------
ASxxxx Linker V03.00 + NoICE + sdld,  page 45.
Hexadecimal  [32-Bits]

Area                                    Addr        Size        Decimal Bytes (Attributes)
--------------------------------        ----        ----        ------- ----- ------------
_HEADERb                            00000000    00000001 =           1. bytes (ABS,CON)

      Value  Global                              Global Defined In Module
      -----  --------------------------------   ------------------------
ASxxxx Linker V03.00 + NoICE + sdld,  page 46.
Hexadecimal  [32-Bits]

Area                                    Addr        Size        Decimal Bytes (Attributes)
--------------------------------        ----        ----        ------- ----- ------------
_HEADERc                            00000000    00000002 =           2. bytes (ABS,CON)

      Value  Global                              Global Defined In Module
      -----  --------------------------------   ------------------------
ASxxxx Linker V03.00 + NoICE + sdld,  page 47.
Hexadecimal  [32-Bits]

Area                                    Addr        Size        Decimal Bytes (Attributes)
--------------------------------        ----        ----        ------- ----- ------------
_HEADERd                            00000000    00000001 =           1. bytes (ABS,CON)

      Value  Global                              Global Defined In Module
      -----  --------------------------------   ------------------------
ASxxxx Linker V03.00 + NoICE + sdld,  page 48.
Hexadecimal  [32-Bits]

Area                                    Addr        Size        Decimal Bytes (Attributes)
--------------------------------        ----        ----        ------- ----- ------------
_HEADERe                            00000000    00000001 =           1. bytes (ABS,CON)

      Value  Global                              Global Defined In Module
      -----  --------------------------------   ------------------------
ASxxxx Linker V03.00 + NoICE + sdld,  page 49.
Hexadecimal  [32-Bits]

Area                                    Addr        Size        Decimal Bytes (Attributes)
--------------------------------        ----        ----        ------- ----- ------------
_HEADERf                            00000000    00000002 =           2. bytes (ABS,CON)

      Value  Global                              Global Defined In Module
      -----  --------------------------------   ------------------------
ASxxxx Linker V03.00 + NoICE + sdld,  page 50.
Hexadecimal  [32-Bits]

Area                                    Addr        Size        Decimal Bytes (Attributes)
--------------------------------        ----        ----        ------- ----- ------------
_HEADER10                           00000000    0000007F =         127. bytes (ABS,CON)

      Value  Global                              Global Defined In Module
      -----  --------------------------------   ------------------------
     00000150  .reset                             Runtime
     00000150  _reset                             Runtime
     00000153  .code_start                        Runtime
     000001B4  _exit                              Runtime
     000001B8  _set_interrupts                    Runtime

ASxxxx Linker V03.00 + NoICE + sdld,  page 51.
Hexadecimal  [32-Bits]

Area                                    Addr        Size        Decimal Bytes (Attributes)
--------------------------------        ----        ----        ------- ----- ------------
_HEADER11                           00000000    00000001 =           1. bytes (ABS,CON)

      Value  Global                              Global Defined In Module
      -----  --------------------------------   ------------------------
ASxxxx Linker V03.00 + NoICE + sdld,  page 52.
Hexadecimal  [32-Bits]

Area                                    Addr        Size        Decimal Bytes (Attributes)
--------------------------------        ----        ----        ------- ----- ------------
_HOME                               00000DB7    000021A1 =        8609. bytes (REL,CON)

      Value  Global                              Global Defined In Module
      -----  --------------------------------   ------------------------
     00000DB7  .remove_VBL                        Runtime
     00000DBA  .remove_int                        Runtime
     00000DD7  .add_VBL                           Runtime
     00000DDA  .add_int                           Runtime
     00000DE5  .wait_vbl_done                     Runtime
     00000DE5  _wait_vbl_done                     Runtime
     00000DF5  .display_off                       Runtime
     00000DF5  _display_off                       Runtime
     00000E0D  _remove_VBL                        Runtime
     00000E18  _add_VBL                           Runtime
     00000E23  _actors_update                     actor
     0000115D  _SetBankedBkgData                  bankdata
     00001179  _SetBankedSpriteData               bankdata
     00001195  _SetBankedBkgTiles                 bankdata
     000011B1  _SetBankedWinTiles                 bankdata
     000011CD  _ReadBankedFarPtr                  bankdata
     000011F4  _ReadBankedUWORD                   bankdata
     00001210  _MemcpyBanked                      bankdata
     0000122C  _MemcpyVRAMBanked                  bankdata
     00001248  _camera_update                     camera
     00001384  _load_animations                   data_manager
     000013E4  _events_update                     events
     00001480  _timers_update                     events
     0000152F  _input_update                      input
     00001558  .sio_ISR                           
     000015B2  .timer_ISR                         
     000015C7  _simple_LCD_isr                    interrupts
     0000160C  _fullscreen_LCD_isr                interrupts
     0000163D  _VBL_isr                           interrupts
     0000167A  _isqrt                             math
     000016D0  _sine_wave                         math
     000017D0  _dir_lookup                        math
     000017D8  _dir_angle_lookup                  math
     000017DC  _hUGETrackerRoutine                music_manager
     00001808  _music_events_update               music_manager
     0000188A  _music_play                        music_manager
     0000190A  _music_mute                        music_manager
     00001932  _music_update                      music_manager
     00001992  _sound_stop                        music_manager
     000019C3  _parallax_LCD_isr                  parallax
     00001A00  _projectiles_update                projectiles
     00001D89  _projectiles_render                projectiles
     00001EF6  _sample_play_isr                   sample_player
     00001F75  _scroll_load_pending_row           scroll
     00001FC8  _scroll_load_row                   scroll
     0000200D  _scroll_load_col                   scroll
     00002041  _scroll_load_pending_col           scroll
     00002099  _set_bkg_submap                    
     000020DD  _set_xy_win_submap                 
     00002106  .set_xy_win_submap                 
ASxxxx Linker V03.00 + NoICE + sdld,  page 53.
Hexadecimal  [32-Bits]

Area                                    Addr        Size        Decimal Bytes (Attributes)
--------------------------------        ----        ----        ------- ----- ------------
_HOME                               00000DB7    000021A1 =        8609. bytes (REL,CON)

      Value  Global                              Global Defined In Module
      -----  --------------------------------   ------------------------
     0000210F  .set_xy_bkg_submap                 
     0000211E  .set_xy_submap                     
     00002164  _on_SIO_receive                    sio
     000021A5  _SIO_update                        sio
     0000220C  _ui_update                         ui
     000022CC  _vm_sgb_transfer                   vm_sgb
     0000231A  _vm_load_text                      vm_ui
     0000256F  _vm_beginthread                    vm
     00002694  _vm_rpn                            vm
     00002D58  _VM_STEP                           vm
     00002DC2  _script_runner_update              vm
     00002F31  ___call__banked                    far_ptr
     00002F4E  _to_far_ptr                        far_ptr
ASxxxx Linker V03.00 + NoICE + sdld,  page 54.
Hexadecimal  [32-Bits]

Area                                    Addr        Size        Decimal Bytes (Attributes)
--------------------------------        ----        ----        ------- ----- ------------
_BASE                               00002F58    0000043F =        1087. bytes (REL,CON)

      Value  Global                              Global Defined In Module
      -----  --------------------------------   ------------------------
     00002F58  _fill_win_rect                     
     00002F6A  _initrand                          
     00002F6C  .initrand                          
     00002F75  __mulsuchar                        mul
     00002F7F  __muluschar                        mul
     00002F89  __mulschar                         mul
     00002F9B  __muluchar                         mul
     00002FA7  __mulint                           mul
     00002FCD  _abs                               abs
     00002FDC  _set_win_tiles                     
     00002FF0  _set_tile_data                     
     00002FF5  _set_bkg_data                      
     00002FF5  _set_win_data                      
     00002FFD  _set_sprite_data                   
     0000302D  _reverse                           reverse
     00003090  _add_LCD                           
     0000309B  .add_LCD                           
     000030A1  _remove_LCD                        
     000030AC  .remove_LCD                        
     000030B2  .fill_rect_wtt                     
     000030BB  .fill_rect_btt                     
     00003108  .copy_vram                         
     00003117  _get_data                          
     00003117  _set_data                          
     0000312A  _fill_bkg_rect                     
     0000313C  .padup                             
     0000313C  _waitpadup                         
     0000314C  .jpad                              
     0000314C  _joypad                            
     00003174  _waitpad                           
     00003177  .wait_pad                          
     0000317E  ___sdcc_call_hl                    call_hl
     0000317F  ___memcpy                          memcpy
     0000317F  _memcpy                            memcpy
     000031C2  _memset                            memset
     000031F5  ___sdcc_bcall_ehl                  
     00003206  __divsuchar                        div
     00003213  __modsuchar                        div
     0000321D  __divuschar                        div
     0000322F  __moduschar                        div
     0000323F  __divschar                         div
     0000324B  __modschar                         div
     00003255  __divsint                          div
     00003266  __modsint                          div
     00003275  __divuchar                         div
     00003281  __moduchar                         div
     0000328B  __divuint                          div
     0000329C  __moduint                          div
     000032AB  .div8                              div
     000032AB  .mod8                              div
ASxxxx Linker V03.00 + NoICE + sdld,  page 55.
Hexadecimal  [32-Bits]

Area                                    Addr        Size        Decimal Bytes (Attributes)
--------------------------------        ----        ----        ------- ----- ------------
_BASE                               00002F58    0000043F =        1087. bytes (REL,CON)

      Value  Global                              Global Defined In Module
      -----  --------------------------------   ------------------------
     000032B3  .div16                             div
     000032B3  .mod16                             div
     000032E9  .divu8                             div
     000032E9  .modu8                             div
     000032EC  .divu16                            div
     000032EC  .modu16                            div
     0000332D  _set_bkg_tiles                     
     00003341  .set_xy_wtt                        
     0000334A  .set_xy_btt                        
     00003359  .set_xy_tt                         
ASxxxx Linker V03.00 + NoICE + sdld,  page 56.
Hexadecimal  [32-Bits]

Area                                    Addr        Size        Decimal Bytes (Attributes)
--------------------------------        ----        ----        ------- ----- ------------
_INITIALIZER                        00003397    0000000D =          13. bytes (REL,CON)

      Value  Global                              Global Defined In Module
      -----  --------------------------------   ------------------------
ASxxxx Linker V03.00 + NoICE + sdld,  page 57.
Hexadecimal  [32-Bits]

Area                                    Addr        Size        Decimal Bytes (Attributes)
--------------------------------        ----        ----        ------- ----- ------------
_GSINIT                             000033A4    00000053 =          83. bytes (REL,CON)

      Value  Global                              Global Defined In Module
      -----  --------------------------------   ------------------------
     000033A4  gsinit                             Runtime

ASxxxx Linker V03.00 + NoICE + sdld,  page 58.
Hexadecimal  [32-Bits]

Area                                    Addr        Size        Decimal Bytes (Attributes)
--------------------------------        ----        ----        ------- ----- ------------
_GSFINAL                            000033F7    00000001 =           1. bytes (REL,CON)

      Value  Global                              Global Defined In Module
      -----  --------------------------------   ------------------------
ASxxxx Linker V03.00 + NoICE + sdld,  page 59.
Hexadecimal  [32-Bits]

Area                                    Addr        Size        Decimal Bytes (Attributes)
--------------------------------        ----        ----        ------- ----- ------------
_DATA                               0000C0A0    000012F4 =        4852. bytes (REL,CON)

      Value  Global                              Global Defined In Module
      -----  --------------------------------   ------------------------
     0000C0A0  _actors                            actor
     0000C500  _actors_active_head                actor
     0000C502  _actors_inactive_head              actor
     0000C504  _screen_x                          actor
     0000C505  _screen_y                          actor
     0000C506  _invalid                           actor
     0000C508  _player_moving                     actor
     0000C509  _player_iframes                    actor
     0000C50A  _player_collision_actor            actor
     0000C50C  _emote_actor                       actor
     0000C50E  _emote_timer                       actor
     0000C50F  _allocated_hardware_sprites        actor
     0000C517  _camera_x                          camera
     0000C519  _camera_y                          camera
     0000C51B  _camera_offset_x                   camera
     0000C51C  _camera_offset_y                   camera
     0000C51D  _camera_deadzone_x                 camera
     0000C51E  _camera_deadzone_y                 camera
     0000C51F  _camera_settings                   camera
     0000C520  _current_scene                     data_manager
     0000C523  _image_bank                        data_manager
     0000C524  _image_ptr                         data_manager
     0000C526  _image_attr_bank                   data_manager
     0000C527  _image_attr_ptr                    data_manager
     0000C529  _collision_bank                    data_manager
     0000C52A  _collision_ptr                     data_manager
     0000C52C  _image_tile_width                  data_manager
     0000C52D  _image_tile_height                 data_manager
     0000C52E  _image_width                       data_manager
     0000C530  _image_height                      data_manager
     0000C532  _sprites_len                       data_manager
     0000C533  _actors_len                        data_manager
     0000C534  _projectiles_len                   data_manager
     0000C535  _player_sprite_len                 data_manager
     0000C536  _scene_type                        data_manager
     0000C537  _scene_LCD_type                    data_manager
     0000C538  _scene_stack                       data_manager
     0000C578  _scene_stack_ptr                   data_manager
     0000C57D  _input_events                      events
     0000C5A5  _input_slots                       events
     0000C5AD  _timer_events                      events
     0000C5C1  _timer_values                      events
     0000C5C9  _fade_running                      fade_manager
     0000C5CA  _fade_frames_per_step              fade_manager
     0000C5CB  _fade_timer                        fade_manager
     0000C5CE  _joypads                           input
     0000C5D3  _last_joy                          input
     0000C5D4  _recent_joy                        input
     0000C5D5  _SIO_status                        
     0000C5D6  _link_byte_sent                    
ASxxxx Linker V03.00 + NoICE + sdld,  page 60.
Hexadecimal  [32-Bits]

Area                                    Addr        Size        Decimal Bytes (Attributes)
--------------------------------        ----        ----        ------- ----- ------------
_DATA                               0000C0A0    000012F4 =        4852. bytes (REL,CON)

      Value  Global                              Global Defined In Module
      -----  --------------------------------   ------------------------
     0000C5D7  _link_next_mode                    
     0000C5D8  _save_blob_size                    load_save
     0000C5DA  _current_track                     music_manager
     0000C5DC  _tone_frames                       music_manager
     0000C5DD  _channel_mask                      music_manager
     0000C5DE  _sound_channel                     music_manager
     0000C5DF  _current_track_bank                music_manager
     0000C5E0  _music_stopped                     music_manager
     0000C5E1  _huge_initialized                  music_manager
     0000C5E2  _routine_queue                     music_manager
     0000C5E6  _routine_queue_head                music_manager
     0000C5E7  _routine_queue_tail                music_manager
     0000C5E8  _music_events                      music_manager
     0000C5FC  _DMG_palette                       palette
     0000C5FF  _SprPalette                        palette
     0000C63F  _parallax_rows                     parallax
     0000C651  _parallax_row                      parallax
     0000C653  _projectiles                       projectiles
     0000C6D5  _projectile_defs                   projectiles
     0000C725  _projectiles_active_head           projectiles
     0000C727  _projectiles_inactive_head         projectiles
     0000C72E  _scroll_x                          scroll
     0000C730  _scroll_y                          scroll
     0000C732  _draw_scroll_x                     scroll
     0000C734  _draw_scroll_y                     scroll
     0000C736  _scroll_x_max                      scroll
     0000C738  _scroll_y_max                      scroll
     0000C73A  _scroll_offset_x                   scroll
     0000C73B  _scroll_offset_y                   scroll
     0000C73C  _pending_h_x                       scroll
     0000C73D  _pending_h_y                       scroll
     0000C73E  _pending_h_i                       scroll
     0000C73F  _pending_w_x                       scroll
     0000C740  _pending_w_y                       scroll
     0000C741  _pending_w_i                       scroll
     0000C742  _current_row                       scroll
     0000C744  _new_row                           scroll
     0000C746  _current_col                       scroll
     0000C748  _new_col                           scroll
     0000C74A  .image_tile_width                  
     0000C74B  _link_operation_mode               sio
     0000C74C  _link_packet                       sio
     0000C76C  _link_packet_len                   sio
     0000C76D  _link_packet_ptr                   sio
     0000C76F  _link_packet_received              sio
     0000C770  _link_packet_snd_len               sio
     0000C771  _link_packet_snd_ptr               sio
     0000C773  _link_packet_sent                  sio
     0000C774  __is_CGB                           system
     0000C775  __is_SGB                           system
     0000C776  _triggers                          trigger
ASxxxx Linker V03.00 + NoICE + sdld,  page 61.
Hexadecimal  [32-Bits]

Area                                    Addr        Size        Decimal Bytes (Attributes)
--------------------------------        ----        ----        ------- ----- ------------
_DATA                               0000C0A0    000012F4 =        4852. bytes (REL,CON)

      Value  Global                              Global Defined In Module
      -----  --------------------------------   ------------------------
     0000C86E  _last_trigger_tx                   trigger
     0000C86F  _last_trigger_ty                   trigger
     0000C870  _last_trigger                      trigger
     0000C871  _win_pos_x                         ui
     0000C872  _win_dest_pos_x                    ui
     0000C873  _win_pos_y                         ui
     0000C874  _win_dest_pos_y                    ui
     0000C875  _win_speed                         ui
     0000C876  _text_drawn                        ui
     0000C877  _current_text_speed                ui
     0000C878  _text_wait                         ui
     0000C879  _text_in_speed                     ui
     0000C87A  _text_out_speed                    ui
     0000C87B  _text_draw_speed                   ui
     0000C87C  _text_ff_joypad                    ui
     0000C87D  _text_ff                           ui
     0000C87E  _text_bkg_fill                     ui
     0000C87F  _ui_text_data                      ui
     0000C989  _vwf_current_mask                  ui
     0000C98A  _vwf_current_rotate                ui
     0000C98B  _vwf_inverse_map                   ui
     0000C98C  _vwf_direction                     ui
     0000C98D  _vwf_current_font_desc             ui
     0000C995  _vwf_current_font_bank             ui
     0000C996  _vwf_current_font_idx              ui
     0000C997  _text_render_base_addr             ui
     0000C999  _text_scroll_addr                  ui
     0000C99B  _text_scroll_width                 ui
     0000C99C  _text_scroll_height                ui
     0000C99D  _text_scroll_fill                  ui
     0000C9A2  __itoa_fmt_len                     vm_ui_a
     0000C9A3  .itoa_fmt_buf                      vm_ui_a
     0000C9A6  _CTXS                              vm
     0000CAD6  _first_ctx                         vm
     0000CAD8  _free_ctxs                         vm
     0000CADA  _vm_lock_state                     vm
     0000CADB  _vm_loaded_state                   vm
     0000CADC  _vm_exception_code                 vm
     0000CADD  _vm_exception_params_length        vm
     0000CADE  _vm_exception_params_bank          vm
     0000CADF  _vm_exception_params_offset        vm
     0000CAE1  _script_memory                     vm
     0000D329  _grounded                          platform
     0000D32A  _on_ladder                         platform
     0000D32B  _pl_vel_x                          platform
     0000D32D  _pl_vel_y                          platform
     0000D32F  _plat_min_vel                      platform
     0000D331  _plat_walk_vel                     platform
     0000D333  _plat_climb_vel                    platform
     0000D335  _plat_run_vel                      platform
     0000D337  _plat_walk_acc                     platform
ASxxxx Linker V03.00 + NoICE + sdld,  page 62.
Hexadecimal  [32-Bits]

Area                                    Addr        Size        Decimal Bytes (Attributes)
--------------------------------        ----        ----        ------- ----- ------------
_DATA                               0000C0A0    000012F4 =        4852. bytes (REL,CON)

      Value  Global                              Global Defined In Module
      -----  --------------------------------   ------------------------
     0000D339  _plat_run_acc                      platform
     0000D33B  _plat_dec                          platform
     0000D33D  _plat_jump_vel                     platform
     0000D33F  _plat_grav                         platform
     0000D341  _plat_hold_grav                    platform
     0000D343  _plat_max_fall_vel                 platform
     0000D345  _shooter_reached_end               shmup
     0000D346  _shooter_dest                      shmup
     0000D348  _shooter_direction                 shmup
     0000D349  _topdown_grid                      topdown
     0000D36F  __current_ch3_wave                 hUGEDriver_obj
     0000D36F  _hUGE_current_wave                 hUGEDriver_obj
     0000D390  ___current_metasprite              Metasprites
     0000D392  ___current_base_tile               Metasprites
     0000D393  ___render_shadow_OAM               Metasprites

ASxxxx Linker V03.00 + NoICE + sdld,  page 63.
Hexadecimal  [32-Bits]

Area                                    Addr        Size        Decimal Bytes (Attributes)
--------------------------------        ----        ----        ------- ----- ------------
_BSS                                0000D394    0000002E =          46. bytes (REL,CON)

      Value  Global                              Global Defined In Module
      -----  --------------------------------   ------------------------
     0000D394  __cpu                              Runtime
     0000D395  .mode                              Runtime
     0000D396  .sys_time                          Runtime
     0000D396  _sys_time                          Runtime
     0000D398  .int_0x40                          Runtime
     0000D3AC  .randhi                            
     0000D3AD  .randlo                            
     0000D3AE  ___call_banked_addr                far_ptr
     0000D3AE  ___call_banked_ptr                 far_ptr
     0000D3B0  ___call_banked_bank                far_ptr
     0000D3B2  .int_0x48                          

ASxxxx Linker V03.00 + NoICE + sdld,  page 64.
Hexadecimal  [32-Bits]

Area                                    Addr        Size        Decimal Bytes (Attributes)
--------------------------------        ----        ----        ------- ----- ------------
_INITIALIZED                        0000D3C2    0000000D =          13. bytes (REL,CON)

      Value  Global                              Global Defined In Module
      -----  --------------------------------   ------------------------
     0000D3C2  _fade_style                        fade_manager
     0000D3C3  _game_time                         game_time
     0000D3C4  _hide_sprites                      interrupts
     0000D3C5  _ISR_counter                       music_manager
     0000D3C6  _play_bank                         sample_player
     0000D3C7  _play_sample                       sample_player
     0000D3C9  _play_length                       sample_player
     0000D3CB  _triggers_len                      trigger
     0000D3CC  _exchange_state                    vm_sio
     0000D3CD  _last_hit_trigger                  pointnclick
     0000D3CE  _shooter_scroll_speed              shmup

ASxxxx Linker V03.00 + NoICE + sdld,  page 65.
Hexadecimal  [32-Bits]

Area                                    Addr        Size        Decimal Bytes (Attributes)
--------------------------------        ----        ----        ------- ----- ------------
_HRAM12                             00000000    00000003 =           3. bytes (ABS,CON)

      Value  Global                              Global Defined In Module
      -----  --------------------------------   ------------------------
     0000FF90  __current_bank                     Runtime
     0000FF92  __shadow_OAM_base                  Runtime

ASxxxx Linker V03.00 + NoICE + sdld,  page 66.
Hexadecimal  [32-Bits]

Area                                    Addr        Size        Decimal Bytes (Attributes)
--------------------------------        ----        ----        ------- ----- ------------
_CODE_1                             00014000    00002786 =       10118. bytes (REL,CON)

      Value  Global                              Global Defined In Module
      -----  --------------------------------   ------------------------
     00014000  _actors_init                       actor
     00014034  _emote_offsets                     actor
     00014043  _emote_metasprite                  actor
     0001404F  _player_init                       actor
     00014062  _deactivate_actor                  actor
     00014164  _activate_actor                    actor
     00014291  _activate_actors_in_row            actor
     00014388  _activate_actors_in_col            actor
     000144D9  _actor_set_frames                  actor
     0001452D  _actor_set_frame_offset            actor
     0001456A  _actor_get_frame_offset            actor
     0001457D  _actor_set_anim_idle               actor
     000145AB  _actor_set_anim_moving             actor
     000145DC  _actor_set_dir                     actor
     00014641  _actor_at_tile                     actor
     00014715  _actor_in_front_of_player          actor
     000147FB  _actor_overlapping_player          actor
     00014AAB  _actor_overlapping_bb              actor
     00014CCA  _actors_handle_player_collision    actor
     00014D50  _check_collision_in_direction      actor
     0001548F  _camera_init                       camera
     000154AD  _camera_reset                      camera
     000154BD  _remove_LCD_ISRs                   interrupts
     000154DE  _parallax_init                     parallax
     00015502  _scroll_init                       scroll
     0001552C  _scroll_reset                      scroll
     0001554C  _scroll_update                     scroll
     00015665  _scroll_viewport                   scroll
     00015AF9  _scroll_repaint                    scroll
     00015B35  _scroll_render_rows                scroll
     00015BBD  _scroll_queue_row                  scroll
     00015BE2  _scroll_queue_col                  scroll
     00015C2E  _ui_swap_tiles                     
     00015C78  _ui_print_make_mask_lr             
     00015C94  _ui_print_make_mask_rl             
     00015CB0  _ui_init                           ui
     00015D64  _ui_load_tiles                     ui
     00015DBB  _ui_draw_frame                     ui
     00015E2A  _ui_print_reset                    ui
     00015E5E  _ui_print_render                   ui
     00016052  _ui_draw_text_buffer_char          ui
     0001647C  _ui_run_menu                       ui
     0001669C  _ui_run_modal                      ui

ASxxxx Linker V03.00 + NoICE + sdld,  page 67.
Hexadecimal  [32-Bits]

Area                                    Addr        Size        Decimal Bytes (Attributes)
--------------------------------        ----        ----        ------- ----- ------------
_CODE_48                            00304000    00000D26 =        3366. bytes (REL,CON)

      Value  Global                              Global Defined In Module
      -----  --------------------------------   ------------------------
     00304000  _bootstrap_script                  
     0030400B  ___func_background_101             background_101
     0030400B  _background_101                    background_101
     00304019  ___func_background_102             background_102
     00304019  _background_102                    background_102
     00304027  ___func_background_103             background_103
     00304027  _background_103                    background_103
     00304035  ___func_background_104             background_104
     00304035  _background_104                    background_104
     00304043  ___func_background_105             background_105
     00304043  _background_105                    background_105
     00304051  ___func_background_106             background_106
     00304051  _background_106                    background_106
     0030405F  ___func_background_107             background_107
     0030405F  _background_107                    background_107
     0030406D  ___func_background_108             background_108
     0030406D  _background_108                    background_108
     0030407B  ___func_background_109             background_109
     0030407B  _background_109                    background_109
     00304089  ___func_background_11              background_11
     00304089  _background_11                     background_11
     00304097  ___func_background_110             background_110
     00304097  _background_110                    background_110
     003040A5  ___func_background_111             background_111
     003040A5  _background_111                    background_111
     003040B3  ___func_background_112             background_112
     003040B3  _background_112                    background_112
     003040C1  ___func_background_113             background_113
     003040C1  _background_113                    background_113
     003040CF  ___func_background_114             background_114
     003040CF  _background_114                    background_114
     003040DD  ___func_background_115             background_115
     003040DD  _background_115                    background_115
     003040EB  ___func_background_116             background_116
     003040EB  _background_116                    background_116
     003040F9  ___func_background_117             background_117
     003040F9  _background_117                    background_117
     00304107  ___func_background_118             background_118
     00304107  _background_118                    background_118
     00304115  ___func_background_119             background_119
     00304115  _background_119                    background_119
     00304123  ___func_background_12              background_12
     00304123  _background_12                     background_12
     00304131  ___func_background_120             background_120
     00304131  _background_120                    background_120
     0030413F  ___func_background_121             background_121
     0030413F  _background_121                    background_121
     0030414D  ___func_background_122             background_122
     0030414D  _background_122                    background_122
     0030415B  ___func_background_123             background_123
ASxxxx Linker V03.00 + NoICE + sdld,  page 68.
Hexadecimal  [32-Bits]

Area                                    Addr        Size        Decimal Bytes (Attributes)
--------------------------------        ----        ----        ------- ----- ------------
_CODE_48                            00304000    00000D26 =        3366. bytes (REL,CON)

      Value  Global                              Global Defined In Module
      -----  --------------------------------   ------------------------
     0030415B  _background_123                    background_123
     00304169  ___func_background_124             background_124
     00304169  _background_124                    background_124
     00304177  ___func_background_125             background_125
     00304177  _background_125                    background_125
     00304185  ___func_background_126             background_126
     00304185  _background_126                    background_126
     00304193  ___func_background_127             background_127
     00304193  _background_127                    background_127
     003041A1  ___func_background_128             background_128
     003041A1  _background_128                    background_128
     003041AF  ___func_background_129             background_129
     003041AF  _background_129                    background_129
     003041BD  ___func_background_13              background_13
     003041BD  _background_13                     background_13
     003041CB  ___func_background_130             background_130
     003041CB  _background_130                    background_130
     003041D9  ___func_background_131             background_131
     003041D9  _background_131                    background_131
     003041E7  ___func_background_132             background_132
     003041E7  _background_132                    background_132
     003041F5  ___func_background_133             background_133
     003041F5  _background_133                    background_133
     00304203  ___func_background_134             background_134
     00304203  _background_134                    background_134
     00304211  ___func_background_135             background_135
     00304211  _background_135                    background_135
     0030421F  ___func_background_136             background_136
     0030421F  _background_136                    background_136
     0030422D  ___func_background_137             background_137
     0030422D  _background_137                    background_137
     0030423B  ___func_background_14              background_14
     0030423B  _background_14                     background_14
     00304249  ___func_background_15              background_15
     00304249  _background_15                     background_15
     00304257  ___func_background_16              background_16
     00304257  _background_16                     background_16
     00304265  ___func_background_17              background_17
     00304265  _background_17                     background_17
     00304273  ___func_background_18              background_18
     00304273  _background_18                     background_18
     00304281  ___func_background_19              background_19
     00304281  _background_19                     background_19
     0030428F  ___func_background_2               background_2
     0030428F  _background_2                      background_2
     0030429D  ___func_background_20              background_20
     0030429D  _background_20                     background_20
     003042AB  ___func_background_21              background_21
     003042AB  _background_21                     background_21
     003042B9  ___func_background_22              background_22
     003042B9  _background_22                     background_22
ASxxxx Linker V03.00 + NoICE + sdld,  page 69.
Hexadecimal  [32-Bits]

Area                                    Addr        Size        Decimal Bytes (Attributes)
--------------------------------        ----        ----        ------- ----- ------------
_CODE_48                            00304000    00000D26 =        3366. bytes (REL,CON)

      Value  Global                              Global Defined In Module
      -----  --------------------------------   ------------------------
     003042C7  ___func_background_23              background_23
     003042C7  _background_23                     background_23
     003042D5  ___func_background_24              background_24
     003042D5  _background_24                     background_24
     003042E3  ___func_background_25              background_25
     003042E3  _background_25                     background_25
     003042F1  ___func_background_26              background_26
     003042F1  _background_26                     background_26
     003042FF  ___func_background_27              background_27
     003042FF  _background_27                     background_27
     0030430D  ___func_background_28              background_28
     0030430D  _background_28                     background_28
     0030431B  ___func_background_29              background_29
     0030431B  _background_29                     background_29
     00304329  ___func_background_3               background_3
     00304329  _background_3                      background_3
     00304337  ___func_background_30              background_30
     00304337  _background_30                     background_30
     00304345  ___func_background_31              background_31
     00304345  _background_31                     background_31
     00304353  ___func_background_32              background_32
     00304353  _background_32                     background_32
     00304361  ___func_background_33              background_33
     00304361  _background_33                     background_33
     0030436F  ___func_background_34              background_34
     0030436F  _background_34                     background_34
     0030437D  ___func_background_35              background_35
     0030437D  _background_35                     background_35
     0030438B  ___func_background_36              background_36
     0030438B  _background_36                     background_36
     00304399  ___func_background_37              background_37
     00304399  _background_37                     background_37
     003043A7  ___func_background_38              background_38
     003043A7  _background_38                     background_38
     003043B5  ___func_background_39              background_39
     003043B5  _background_39                     background_39
     003043C3  ___func_background_4               background_4
     003043C3  _background_4                      background_4
     003043D1  ___func_background_40              background_40
     003043D1  _background_40                     background_40
     003043DF  ___func_background_41              background_41
     003043DF  _background_41                     background_41
     003043ED  ___func_background_42              background_42
     003043ED  _background_42                     background_42
     003043FB  ___func_background_43              background_43
     003043FB  _background_43                     background_43
     00304409  ___func_background_44              background_44
     00304409  _background_44                     background_44
     00304417  ___func_background_45              background_45
     00304417  _background_45                     background_45
     00304425  ___func_background_46              background_46
ASxxxx Linker V03.00 + NoICE + sdld,  page 70.
Hexadecimal  [32-Bits]

Area                                    Addr        Size        Decimal Bytes (Attributes)
--------------------------------        ----        ----        ------- ----- ------------
_CODE_48                            00304000    00000D26 =        3366. bytes (REL,CON)

      Value  Global                              Global Defined In Module
      -----  --------------------------------   ------------------------
     00304425  _background_46                     background_46
     00304433  ___func_background_47              background_47
     00304433  _background_47                     background_47
     00304441  ___func_background_48              background_48
     00304441  _background_48                     background_48
     0030444F  ___func_background_49              background_49
     0030444F  _background_49                     background_49
     0030445D  ___func_background_5               background_5
     0030445D  _background_5                      background_5
     0030446B  ___func_background_50              background_50
     0030446B  _background_50                     background_50
     00304479  ___func_background_51              background_51
     00304479  _background_51                     background_51
     00304487  ___func_background_52              background_52
     00304487  _background_52                     background_52
     00304495  ___func_background_53              background_53
     00304495  _background_53                     background_53
     003044A3  ___func_background_54              background_54
     003044A3  _background_54                     background_54
     003044B1  ___func_background_55              background_55
     003044B1  _background_55                     background_55
     003044BF  ___func_background_56              background_56
     003044BF  _background_56                     background_56
     003044CD  ___func_background_57              background_57
     003044CD  _background_57                     background_57
     003044DB  ___func_background_58              background_58
     003044DB  _background_58                     background_58
     003044E9  ___func_background_59              background_59
     003044E9  _background_59                     background_59
     003044F7  ___func_background_6               background_6
     003044F7  _background_6                      background_6
     00304505  ___func_background_60              background_60
     00304505  _background_60                     background_60
     00304513  ___func_background_61              background_61
     00304513  _background_61                     background_61
     00304521  ___func_background_62              background_62
     00304521  _background_62                     background_62
     0030452F  ___func_background_63              background_63
     0030452F  _background_63                     background_63
     0030453D  ___func_background_64              background_64
     0030453D  _background_64                     background_64
     0030454B  ___func_background_65              background_65
     0030454B  _background_65                     background_65
     00304559  ___func_background_66              background_66
     00304559  _background_66                     background_66
     00304567  ___func_background_67              background_67
     00304567  _background_67                     background_67
     00304575  ___func_background_68              background_68
     00304575  _background_68                     background_68
     00304583  ___func_background_69              background_69
     00304583  _background_69                     background_69
ASxxxx Linker V03.00 + NoICE + sdld,  page 71.
Hexadecimal  [32-Bits]

Area                                    Addr        Size        Decimal Bytes (Attributes)
--------------------------------        ----        ----        ------- ----- ------------
_CODE_48                            00304000    00000D26 =        3366. bytes (REL,CON)

      Value  Global                              Global Defined In Module
      -----  --------------------------------   ------------------------
     00304591  ___func_background_7               background_7
     00304591  _background_7                      background_7
     0030459F  ___func_background_70              background_70
     0030459F  _background_70                     background_70
     003045AD  ___func_background_71              background_71
     003045AD  _background_71                     background_71
     003045BB  ___func_background_72              background_72
     003045BB  _background_72                     background_72
     003045C9  ___func_background_73              background_73
     003045C9  _background_73                     background_73
     003045D7  ___func_background_74              background_74
     003045D7  _background_74                     background_74
     003045E5  ___func_background_75              background_75
     003045E5  _background_75                     background_75
     003045F3  ___func_background_76              background_76
     003045F3  _background_76                     background_76
     00304601  ___func_background_77              background_77
     00304601  _background_77                     background_77
     0030460F  ___func_background_78              background_78
     0030460F  _background_78                     background_78
     0030461D  ___func_background_79              background_79
     0030461D  _background_79                     background_79
     0030462B  ___func_background_8               background_8
     0030462B  _background_8                      background_8
     00304639  ___func_background_80              background_80
     00304639  _background_80                     background_80
     00304647  ___func_background_81              background_81
     00304647  _background_81                     background_81
     00304655  ___func_background_82              background_82
     00304655  _background_82                     background_82
     00304663  ___func_background_83              background_83
     00304663  _background_83                     background_83
     00304671  ___func_background_84              background_84
     00304671  _background_84                     background_84
     0030467F  ___func_background_85              background_85
     0030467F  _background_85                     background_85
     0030468D  ___func_background_86              background_86
     0030468D  _background_86                     background_86
     0030469B  ___func_background_87              background_87
     0030469B  _background_87                     background_87
     003046A9  ___func_background_88              background_88
     003046A9  _background_88                     background_88
     003046B7  ___func_background_89              background_89
     003046B7  _background_89                     background_89
     003046C5  ___func_background_9               background_9
     003046C5  _background_9                      background_9
     003046D3  ___func_background_90              background_90
     003046D3  _background_90                     background_90
     003046E1  ___func_background_91              background_91
     003046E1  _background_91                     background_91
     003046EF  ___func_background_92              background_92
ASxxxx Linker V03.00 + NoICE + sdld,  page 72.
Hexadecimal  [32-Bits]

Area                                    Addr        Size        Decimal Bytes (Attributes)
--------------------------------        ----        ----        ------- ----- ------------
_CODE_48                            00304000    00000D26 =        3366. bytes (REL,CON)

      Value  Global                              Global Defined In Module
      -----  --------------------------------   ------------------------
     003046EF  _background_92                     background_92
     003046FD  ___func_background_93              background_93
     003046FD  _background_93                     background_93
     0030470B  ___func_background_94              background_94
     0030470B  _background_94                     background_94
     00304719  ___func_background_95              background_95
     00304719  _background_95                     background_95
     00304727  ___func_background_96              background_96
     00304727  _background_96                     background_96
     00304735  ___func_background_97              background_97
     00304735  _background_97                     background_97
     00304743  ___func_background_98              background_98
     00304743  _background_98                     background_98
     00304751  ___func_background_99              background_99
     00304751  _background_99                     background_99
     0030475F  ___func_scene_103_triggers         scene_103_triggers
     0030475F  _scene_103_triggers                scene_103_triggers
     0030476F  ___func_scene_105_triggers         scene_105_triggers
     0030476F  _scene_105_triggers                scene_105_triggers
     0030477F  ___func_scene_109_triggers         scene_109_triggers
     0030477F  _scene_109_triggers                scene_109_triggers
     0030478F  ___func_scene_114_sprites          scene_114_sprites
     0030478F  _scene_114_sprites                 scene_114_sprites
     00304792  ___func_scene_115_sprites          scene_115_sprites
     00304792  _scene_115_sprites                 scene_115_sprites
     00304795  ___func_scene_116_sprites          scene_116_sprites
     00304795  _scene_116_sprites                 scene_116_sprites
     00304798  ___func_scene_117_triggers         scene_117_triggers
     00304798  _scene_117_triggers                scene_117_triggers
     003047A0  ___func_scene_118_triggers         scene_118_triggers
     003047A0  _scene_118_triggers                scene_118_triggers
     003047A8  ___func_scene_119_triggers         scene_119_triggers
     003047A8  _scene_119_triggers                scene_119_triggers
     003047B0  ___func_scene_12_sprites           scene_12_sprites
     003047B0  _scene_12_sprites                  scene_12_sprites
     003047B3  ___func_scene_12_triggers          scene_12_triggers
     003047B3  _scene_12_triggers                 scene_12_triggers
     003047C3  ___func_scene_120_sprites          scene_120_sprites
     003047C3  _scene_120_sprites                 scene_120_sprites
     003047C6  ___func_scene_129_sprites          scene_129_sprites
     003047C6  _scene_129_sprites                 scene_129_sprites
     003047C9  ___func_scene_13_sprites           scene_13_sprites
     003047C9  _scene_13_sprites                  scene_13_sprites
     003047CC  ___func_scene_13_triggers          scene_13_triggers
     003047CC  _scene_13_triggers                 scene_13_triggers
     003047DC  ___func_scene_130_sprites          scene_130_sprites
     003047DC  _scene_130_sprites                 scene_130_sprites
     003047DF  ___func_scene_14_triggers          scene_14_triggers
     003047DF  _scene_14_triggers                 scene_14_triggers
     003047EF  ___func_scene_15_triggers          scene_15_triggers
     003047EF  _scene_15_triggers                 scene_15_triggers
ASxxxx Linker V03.00 + NoICE + sdld,  page 73.
Hexadecimal  [32-Bits]

Area                                    Addr        Size        Decimal Bytes (Attributes)
--------------------------------        ----        ----        ------- ----- ------------
_CODE_48                            00304000    00000D26 =        3366. bytes (REL,CON)

      Value  Global                              Global Defined In Module
      -----  --------------------------------   ------------------------
     003047FF  ___func_scene_16_triggers          scene_16_triggers
     003047FF  _scene_16_triggers                 scene_16_triggers
     0030480F  ___func_scene_17_sprites           scene_17_sprites
     0030480F  _scene_17_sprites                  scene_17_sprites
     00304815  ___func_scene_18_sprites           scene_18_sprites
     00304815  _scene_18_sprites                  scene_18_sprites
     00304818  ___func_scene_18_triggers          scene_18_triggers
     00304818  _scene_18_triggers                 scene_18_triggers
     00304828  ___func_scene_19_sprites           scene_19_sprites
     00304828  _scene_19_sprites                  scene_19_sprites
     0030482E  ___func_scene_19_triggers          scene_19_triggers
     0030482E  _scene_19_triggers                 scene_19_triggers
     0030483E  ___func_scene_2_sprites            scene_2_sprites
     0030483E  _scene_2_sprites                   scene_2_sprites
     00304841  ___func_scene_20_sprites           scene_20_sprites
     00304841  _scene_20_sprites                  scene_20_sprites
     00304847  ___func_scene_20_triggers          scene_20_triggers
     00304847  _scene_20_triggers                 scene_20_triggers
     00304857  ___func_scene_21_sprites           scene_21_sprites
     00304857  _scene_21_sprites                  scene_21_sprites
     0030485A  ___func_scene_24_triggers          scene_24_triggers
     0030485A  _scene_24_triggers                 scene_24_triggers
     00304862  ___func_scene_25_triggers          scene_25_triggers
     00304862  _scene_25_triggers                 scene_25_triggers
     00304872  ___func_scene_26_triggers          scene_26_triggers
     00304872  _scene_26_triggers                 scene_26_triggers
     00304882  ___func_scene_27_triggers          scene_27_triggers
     00304882  _scene_27_triggers                 scene_27_triggers
     00304892  ___func_scene_28_triggers          scene_28_triggers
     00304892  _scene_28_triggers                 scene_28_triggers
     0030489A  ___func_scene_29_triggers          scene_29_triggers
     0030489A  _scene_29_triggers                 scene_29_triggers
     003048AA  ___func_scene_30_triggers          scene_30_triggers
     003048AA  _scene_30_triggers                 scene_30_triggers
     003048B2  ___func_scene_31_triggers          scene_31_triggers
     003048B2  _scene_31_triggers                 scene_31_triggers
     003048C2  ___func_scene_33_triggers          scene_33_triggers
     003048C2  _scene_33_triggers                 scene_33_triggers
     003048D2  ___func_scene_34_triggers          scene_34_triggers
     003048D2  _scene_34_triggers                 scene_34_triggers
     003048E2  ___func_scene_35_triggers          scene_35_triggers
     003048E2  _scene_35_triggers                 scene_35_triggers
     003048EA  ___func_scene_36_triggers          scene_36_triggers
     003048EA  _scene_36_triggers                 scene_36_triggers
     003048FA  ___func_scene_37_triggers          scene_37_triggers
     003048FA  _scene_37_triggers                 scene_37_triggers
     00304902  ___func_scene_38_triggers          scene_38_triggers
     00304902  _scene_38_triggers                 scene_38_triggers
     0030490A  ___func_scene_39_triggers          scene_39_triggers
     0030490A  _scene_39_triggers                 scene_39_triggers
     00304912  ___func_scene_4_sprites            scene_4_sprites
ASxxxx Linker V03.00 + NoICE + sdld,  page 74.
Hexadecimal  [32-Bits]

Area                                    Addr        Size        Decimal Bytes (Attributes)
--------------------------------        ----        ----        ------- ----- ------------
_CODE_48                            00304000    00000D26 =        3366. bytes (REL,CON)

      Value  Global                              Global Defined In Module
      -----  --------------------------------   ------------------------
     00304912  _scene_4_sprites                   scene_4_sprites
     00304915  ___func_scene_4_triggers           scene_4_triggers
     00304915  _scene_4_triggers                  scene_4_triggers
     0030491D  ___func_scene_40_triggers          scene_40_triggers
     0030491D  _scene_40_triggers                 scene_40_triggers
     0030492D  ___func_scene_41_triggers          scene_41_triggers
     0030492D  _scene_41_triggers                 scene_41_triggers
     00304935  ___func_scene_42_triggers          scene_42_triggers
     00304935  _scene_42_triggers                 scene_42_triggers
     0030494D  ___func_scene_5_sprites            scene_5_sprites
     0030494D  _scene_5_sprites                   scene_5_sprites
     00304950  ___func_scene_5_triggers           scene_5_triggers
     00304950  _scene_5_triggers                  scene_5_triggers
     00304958  ___func_scene_6_sprites            scene_6_sprites
     00304958  _scene_6_sprites                   scene_6_sprites
     0030495B  ___func_scene_63_triggers          scene_63_triggers
     0030495B  _scene_63_triggers                 scene_63_triggers
     00304963  ___func_scene_64_triggers          scene_64_triggers
     00304963  _scene_64_triggers                 scene_64_triggers
     00304973  ___func_scene_65_triggers          scene_65_triggers
     00304973  _scene_65_triggers                 scene_65_triggers
     00304983  ___func_scene_66_triggers          scene_66_triggers
     00304983  _scene_66_triggers                 scene_66_triggers
     0030499B  ___func_scene_67_triggers          scene_67_triggers
     0030499B  _scene_67_triggers                 scene_67_triggers
     003049AB  ___func_scene_68_triggers          scene_68_triggers
     003049AB  _scene_68_triggers                 scene_68_triggers
     003049C3  ___func_scene_69_triggers          scene_69_triggers
     003049C3  _scene_69_triggers                 scene_69_triggers
     003049D3  ___func_scene_7_sprites            scene_7_sprites
     003049D3  _scene_7_sprites                   scene_7_sprites
     003049D9  ___func_scene_7_triggers           scene_7_triggers
     003049D9  _scene_7_triggers                  scene_7_triggers
     003049F1  ___func_scene_71_triggers          scene_71_triggers
     003049F1  _scene_71_triggers                 scene_71_triggers
     00304A11  ___func_scene_72_triggers          scene_72_triggers
     00304A11  _scene_72_triggers                 scene_72_triggers
     00304A21  ___func_scene_73_triggers          scene_73_triggers
     00304A21  _scene_73_triggers                 scene_73_triggers
     00304A31  ___func_scene_74_triggers          scene_74_triggers
     00304A31  _scene_74_triggers                 scene_74_triggers
     00304A41  ___func_scene_75_triggers          scene_75_triggers
     00304A41  _scene_75_triggers                 scene_75_triggers
     00304A51  ___func_scene_76_triggers          scene_76_triggers
     00304A51  _scene_76_triggers                 scene_76_triggers
     00304A61  ___func_scene_78_triggers          scene_78_triggers
     00304A61  _scene_78_triggers                 scene_78_triggers
     00304A71  ___func_scene_79_triggers          scene_79_triggers
     00304A71  _scene_79_triggers                 scene_79_triggers
     00304A79  ___func_scene_8_sprites            scene_8_sprites
     00304A79  _scene_8_sprites                   scene_8_sprites
ASxxxx Linker V03.00 + NoICE + sdld,  page 75.
Hexadecimal  [32-Bits]

Area                                    Addr        Size        Decimal Bytes (Attributes)
--------------------------------        ----        ----        ------- ----- ------------
_CODE_48                            00304000    00000D26 =        3366. bytes (REL,CON)

      Value  Global                              Global Defined In Module
      -----  --------------------------------   ------------------------
     00304A7C  ___func_scene_8_triggers           scene_8_triggers
     00304A7C  _scene_8_triggers                  scene_8_triggers
     00304A8C  ___func_scene_80_triggers          scene_80_triggers
     00304A8C  _scene_80_triggers                 scene_80_triggers
     00304A9C  ___func_scene_81_triggers          scene_81_triggers
     00304A9C  _scene_81_triggers                 scene_81_triggers
     00304AA4  ___func_scene_82_triggers          scene_82_triggers
     00304AA4  _scene_82_triggers                 scene_82_triggers
     00304AB4  ___func_scene_83_triggers          scene_83_triggers
     00304AB4  _scene_83_triggers                 scene_83_triggers
     00304AC4  ___func_scene_84_triggers          scene_84_triggers
     00304AC4  _scene_84_triggers                 scene_84_triggers
     00304AE4  ___func_scene_86_triggers          scene_86_triggers
     00304AE4  _scene_86_triggers                 scene_86_triggers
     00304AEC  ___func_scene_87_triggers          scene_87_triggers
     00304AEC  _scene_87_triggers                 scene_87_triggers
     00304AFC  ___func_scene_88_triggers          scene_88_triggers
     00304AFC  _scene_88_triggers                 scene_88_triggers
     00304B14  ___func_scene_89_triggers          scene_89_triggers
     00304B14  _scene_89_triggers                 scene_89_triggers
     00304B3C  ___func_scene_9_sprites            scene_9_sprites
     00304B3C  _scene_9_sprites                   scene_9_sprites
     00304B42  ___func_scene_9_triggers           scene_9_triggers
     00304B42  _scene_9_triggers                  scene_9_triggers
     00304B52  ___func_scene_90_sprites           scene_90_sprites
     00304B52  _scene_90_sprites                  scene_90_sprites
     00304B55  ___func_scene_91_sprites           scene_91_sprites
     00304B55  _scene_91_sprites                  scene_91_sprites
     00304B58  ___func_scene_96_sprites           scene_96_sprites
     00304B58  _scene_96_sprites                  scene_96_sprites
     00304B5B  ___func_scene_97_sprites           scene_97_sprites
     00304B5B  _scene_97_sprites                  scene_97_sprites
     00304B5E  ___func_scene_98_sprites           scene_98_sprites
     00304B5E  _scene_98_sprites                  scene_98_sprites
     00304B64  ___func_scene_99_sprites           scene_99_sprites
     00304B64  _scene_99_sprites                  scene_99_sprites
     00304B67  _script_input_1                    
     00304B8D  _script_input_3                    
     00304BB1  _script_input_4                    
     00304BD5  _script_input_5                    
     00304BF9  _script_input_7                    
     00304C1D  _script_s102_init                  
     00304C40  _script_s103_init                  
     00304C63  _script_s117_init                  
     00304C73  _script_s118_init                  
     00304C83  _script_s2_init                    
     00304C99  _script_s22_init                   
     00304CA9  _script_s22t2_interact             
     00304CB5  _script_s22t4_interact             
     00304CC9  _script_s3_init                    
     00304CDF  _script_s7a0_update                
ASxxxx Linker V03.00 + NoICE + sdld,  page 76.
Hexadecimal  [32-Bits]

Area                                    Addr        Size        Decimal Bytes (Attributes)
--------------------------------        ----        ----        ------- ----- ------------
_CODE_48                            00304000    00000D26 =        3366. bytes (REL,CON)

      Value  Global                              Global Defined In Module
      -----  --------------------------------   ------------------------
     00304CED  _spritesheet_none_metasprite       spritesheet_none
     00304CF1  _spritesheet_none_metasprites      spritesheet_none
     00304CF3  _spritesheet_none                  spritesheet_none
     00304D04  ___func_tileset_74                 tileset_74
     00304D04  _tileset_74                        tileset_74

ASxxxx Linker V03.00 + NoICE + sdld,  page 77.
Hexadecimal  [32-Bits]

Area                                    Addr        Size        Decimal Bytes (Attributes)
--------------------------------        ----        ----        ------- ----- ------------
_CODE_4                             00044000    000020CE =        8398. bytes (REL,CON)

      Value  Global                              Global Defined In Module
      -----  --------------------------------   ------------------------
     00044000  _core_reset                        core
     00044082  _process_VM                        core
     0004431C  _core_run                          core
     000443BE  _load_init                         data_manager
     000443D1  _spritesheet_none_far              data_manager
     000443D4  _load_bkg_tileset                  data_manager
     000444D8  _load_background                   data_manager
     00044597  _load_sprite                       data_manager
     000445EB  _load_bounds                       data_manager
     0004460B  _do_load_palette                   data_manager
     0004468B  _get_farptr_index                  data_manager
     00044721  _load_scene                        data_manager
     0004503D  _load_player                       data_manager
     00045089  _load_emote                        data_manager
     0004509D  _events_init                       events
     000450DD  _timers_init                       events
     0004511D  _DMGFadeToWhiteStep                fade_manager
     00045140  _DMGFadeToBlackStep                fade_manager
     00045165  _ApplyPaletteChangeDMG             fade_manager
     000451DC  _fade_speeds                       fade_manager
     000451E3  _fade_init                         fade_manager
     000451FC  _fade_in                           fade_manager
     0004521D  _fade_out                          fade_manager
     00045241  _fade_update                       fade_manager
     0004528B  _fade_applypalettechange           fade_manager
     00045295  _fade_setspeed                     fade_manager
     000452A5  _fade_in_modal                     fade_manager
     000452C5  _fade_out_modal                    fade_manager
     00045351  _save_sram_banks                   
     000453DC  _erase_flash                       
     000453F7  _restore_sram_bank                 flasher
     00045426  _restore_sram                      flasher
     0004543C  _save_sram                         flasher
     0004544F  _input_init                        input
     0004546B  _data_init                         load_save
     000454AC  _signature                         load_save
     000454B0  _save_points                       load_save
     000454F4  _data_slot_address                 load_save
     0004554C  _data_save                         load_save
     00045603  _data_load                         load_save
     000456D6  _data_clear                        load_save
     000456FB  _data_peek                         load_save
     00045799  _sound_init                        music_manager
     000457CA  _music_init                        music_manager
     00045806  _music_events_poll                 music_manager
     00045830  _music_stop                        music_manager
     00045843  _wave_play                         music_manager
     00045881  _FX_REG_SIZES                      music_manager
     00045886  _FX_ADDR_LO                        music_manager
     0004588B  _channel_masks                     music_manager
ASxxxx Linker V03.00 + NoICE + sdld,  page 78.
Hexadecimal  [32-Bits]

Area                                    Addr        Size        Decimal Bytes (Attributes)
--------------------------------        ----        ----        ------- ----- ------------
_CODE_4                             00044000    000020CE =        8398. bytes (REL,CON)

      Value  Global                              Global Defined In Module
      -----  --------------------------------   ------------------------
     00045890  _sound_play                        music_manager
     00045911  _palette_init                      palette
     00045921  _projectiles_init                  projectiles
     00045960  _projectile_launch                 projectiles
     00045AA6  _set_sample                        sample_player
     00045ADF  _set_sgb_border                    sgb_border
     00045D23  _SIO_init                          sio
     00045D4C  _trigger_reset                     trigger
     00045D5C  _trigger_interact                  trigger
     00045D9C  _trigger_activate_at               trigger
     00045DE7  _trigger_activate_at_intersectio   trigger
     00045F29  _trigger_at_intersection           trigger
     0004603E  _trigger_at_tile                   trigger
ASxxxx Linker V03.00 + NoICE + sdld,  page 79.
Hexadecimal  [32-Bits]

Area                                    Addr        Size        Decimal Bytes (Attributes)
--------------------------------        ----        ----        ------- ----- ------------
_HEADER_SIO0                        00000000    00000004 =           4. bytes (ABS,CON)

      Value  Global                              Global Defined In Module
      -----  --------------------------------   ------------------------
ASxxxx Linker V03.00 + NoICE + sdld,  page 80.
Hexadecimal  [32-Bits]

Area                                    Addr        Size        Decimal Bytes (Attributes)
--------------------------------        ----        ----        ------- ----- ------------
_HEADER_TIMER0                      00000000    00000004 =           4. bytes (ABS,CON)

      Value  Global                              Global Defined In Module
      -----  --------------------------------   ------------------------
ASxxxx Linker V03.00 + NoICE + sdld,  page 81.
Hexadecimal  [32-Bits]

Area                                    Addr        Size        Decimal Bytes (Attributes)
--------------------------------        ----        ----        ------- ----- ------------
_CODE_2                             00024000    00003807 =       14343. bytes (REL,CON)

      Value  Global                              Global Defined In Module
      -----  --------------------------------   ------------------------
     00024000  _scroll_rect                       
     0002403D  _vm_actor_move_to                  vm_actor
     000249EB  _vm_actor_activate                 vm_actor
     00024A29  _vm_actor_deactivate               vm_actor
     00024A67  _vm_actor_terminate_update         vm_actor
     00024AAE  _vm_actor_set_dir                  vm_actor
     00024AF7  _vm_actor_set_anim                 vm_actor
     00024B84  _vm_actor_set_pos                  vm_actor
     00024C0A  _vm_actor_get_pos                  vm_actor
     00024C88  _vm_actor_get_dir                  vm_actor
     00024D02  _vm_actor_get_angle                vm_actor
     00024D83  _vm_actor_emote                    vm_actor
     00024E47  _vm_actor_set_bounds               vm_actor
     00024EA5  _vm_actor_set_spritesheet          vm_actor
     00024F74  _vm_actor_replace_tile             vm_actor
     00024FDE  _vm_actor_set_hidden               vm_actor
     0002501C  _vm_actor_set_anim_tick            vm_actor
     0002505A  _vm_actor_set_move_speed           vm_actor
     00025098  _vm_actor_set_coll_enabled         vm_actor
     000250D6  _vm_actor_set_anim_frame           vm_actor
     00025119  _vm_actor_get_anim_frame           vm_actor
     00025161  _vm_actor_set_anim_set             vm_actor
     000251EE  _vm_camera_move_to                 vm_camera
     00025341  _vm_camera_set_pos                 vm_camera
     00025388  _camera_shake_frames               vm_camera
     00025480  _vm_show_sprites                   vm_gameboy
     0002548C  _vm_hide_sprites                   vm_gameboy
     00025498  _vm_input_wait                     vm_gameboy
     000254C0  _vm_context_prepare                vm_gameboy
     000254EB  _vm_input_attach                   vm_gameboy
     00025501  _vm_input_detach                   vm_gameboy
     00025515  _vm_input_get                      vm_gameboy
     00025549  _vm_fade_in                        vm_gameboy
     0002555F  _vm_fade_out                       vm_gameboy
     00025575  _vm_timer_prepare                  vm_gameboy
     000255A0  _vm_timer_set                      vm_gameboy
     000255BB  _vm_timer_stop                     vm_gameboy
     000255CF  _vm_timer_reset                    vm_gameboy
     000255E6  _vm_get_tile_xy                    vm_gameboy
     00025692  _vm_replace_tile                   vm_gameboy
     00025721  _vm_poll                           vm_gameboy
     000257FA  _vm_set_sprite_mode                vm_gameboy
     0002580E  _vm_replace_tile_xy                vm_gameboy
     000258EC  _vm_rumble                         vm_gameboy
     00025904  _vm_save_clear                     vm_load_save
     00025913  _vm_save_peek                      vm_load_save
     00025993  _vm_sin_scale                      vm_math
     00025A35  _vm_cos_scale                      vm_math
     00025AD9  _vm_music_play                     vm_music
     00025AED  _vm_music_stop                     vm_music
ASxxxx Linker V03.00 + NoICE + sdld,  page 82.
Hexadecimal  [32-Bits]

Area                                    Addr        Size        Decimal Bytes (Attributes)
--------------------------------        ----        ----        ------- ----- ------------
_CODE_2                             00024000    00003807 =       14343. bytes (REL,CON)

      Value  Global                              Global Defined In Module
      -----  --------------------------------   ------------------------
     00025AF5  _vm_music_mute                     vm_music
     00025B05  _vm_music_routine                  vm_music
     00025B2C  _vm_music_setpos                   vm_music
     00025B36  _vm_sound_mastervol                vm_music
     00025B3C  _vm_sound_play                     vm_music
     00025B84  _vm_wave_play                      vm_music
     00025BA1  _vm_load_palette                   vm_palette
     00025CFA  _vm_projectile_launch              vm_projectiles
     00025D35  _vm_rtc_latch                      vm_rtc
     00025D3D  _vm_rtc_get                        vm_rtc
     00025D86  _vm_rtc_set                        vm_rtc
     00025DCF  _vm_rtc_start                      vm_rtc
     00025DEA  _vm_scene_push                     vm_scene
     00025E6F  _vm_scene_pop                      vm_scene
     00025E7D  _vm_scene_pop_all                  vm_scene
     00025E88  _vm_scene_stack_reset              vm_scene
     00025E91  _vm_sio_set_mode                   vm_sio
     00025EA4  _vm_sio_exchange                   vm_sio
     000261FD  _itoa_fmt                          vm_ui_a
     00026236  .utoa_fmt                          vm_ui_a
     000262E0  _vm_display_text                   vm_ui
     000262FC  _vm_switch_text_layer              vm_ui
     00026316  _vm_overlay_setpos                 vm_ui
     00026330  _vm_overlay_hide                   vm_ui
     00026345  _vm_overlay_wait                   vm_ui
     000263E8  _vm_overlay_move_to                vm_ui
     0002642B  _vm_overlay_set_scroll             vm_ui
     00026468  _vm_overlay_clear                  vm_ui
     00026510  _vm_overlay_show                   vm_ui
     0002655E  _vm_choice                         vm_ui
     000265FD  _vm_load_frame                     vm_ui
     00026610  _vm_load_cursor                    vm_ui
     00026623  _vm_set_font                       vm_ui
     00026650  _vm_set_print_dir                  vm_ui
     00026659  _vm_overlay_scroll                 vm_ui
     00026694  _vm_overlay_set_submap             vm_ui
     000266D1  _vm_call_rel                       vm
     00026723  _vm_call                           vm
     00026765  _vm_ret                            vm
     000267C4  _vm_call_far                       vm
     00026841  _vm_ret_far                        vm
     000268B0  _vm_push                           vm
     000268DA  _vm_pop                            vm
     00026915  _vm_loop_rel                       vm
     000269C3  _vm_loop                           vm
     00026A50  _vm_jump_rel                       vm
     00026A74  _vm_jump                           vm
     00026A80  _vm_systime                        vm
     00026AAC  _wait_frames                       vm
     00026B23  _vm_invoke                         vm
     00026C4F  _vm_join                           vm
ASxxxx Linker V03.00 + NoICE + sdld,  page 83.
Hexadecimal  [32-Bits]

Area                                    Addr        Size        Decimal Bytes (Attributes)
--------------------------------        ----        ----        ------- ----- ------------
_CODE_2                             00024000    00003807 =       14343. bytes (REL,CON)

      Value  Global                              Global Defined In Module
      -----  --------------------------------   ------------------------
     00026CA8  _vm_terminate                      vm
     00026CD5  _vm_if                             vm
     00026E19  _vm_if_const                       vm
     00026F2D  _vm_push_value                     vm
     00026F7F  _vm_push_value_ind                 vm
     00026FF4  _vm_push_reference                 vm
     0002704B  _vm_reserve                        vm
     00027078  _vm_set                            vm
     000270D9  _vm_set_const                      vm
     00027105  _vm_get_tlocal                     vm
     00027192  _vm_test_terminate                 vm
     0002719D  _vm_idle                           vm
     000271A9  _vm_get_uint8                      vm
     000271DC  _vm_get_int8                       vm
     00027210  _vm_get_int16                      vm
     00027252  _vm_set_uint8                      vm
     0002727E  _vm_set_int8                       vm
     000272AA  _vm_set_int16                      vm
     000272E9  _vm_set_const_int8                 vm
     000272F2  _vm_set_const_int16                vm
     000272FE  _vm_randomize                      vm
     00027309  _vm_rand                           vm
     0002738E  _vm_lock                           vm
     0002739D  _vm_unlock                         vm
     000273B0  _vm_raise                          vm
     000273F2  _vm_set_indirect                   vm
     0002746D  _vm_get_indirect                   vm
     000274E8  _vm_poll_loaded                    vm
     00027517  _vm_memset                         vm
     0002755C  _vm_memcpy                         vm
     000275DC  _script_runner_init                vm
     00027686  _script_execute                    vm
     000277A1  _script_terminate                  vm

ASxxxx Linker V03.00 + NoICE + sdld,  page 84.
Hexadecimal  [32-Bits]

Area                                    Addr        Size        Decimal Bytes (Attributes)
--------------------------------        ----        ----        ------- ----- ------------
_CODE_7                             00074000    00004000 =       16384. bytes (REL,CON)

      Value  Global                              Global Defined In Module
      -----  --------------------------------   ------------------------
     00074000  ___func_background_0               background_0
     00074000  _background_0                      background_0
     0007400E  ___func_scene_57_collisions        scene_57_collisions
     0007400E  _scene_57_collisions               scene_57_collisions
     00075F4E  ___func_tilemap_10                 tilemap_10
     00075F4E  _tilemap_10                        tilemap_10
     00077E8E  ___func_tileset_46                 tileset_46
     00077E8E  _tileset_46                        tileset_46

ASxxxx Linker V03.00 + NoICE + sdld,  page 85.
Hexadecimal  [32-Bits]

Area                                    Addr        Size        Decimal Bytes (Attributes)
--------------------------------        ----        ----        ------- ----- ------------
_CODE_8                             00084000    00004000 =       16384. bytes (REL,CON)

      Value  Global                              Global Defined In Module
      -----  --------------------------------   ------------------------
     00084000  ___func_background_1               background_1
     00084000  _background_1                      background_1
     0008400E  ___func_scene_51_collisions        scene_51_collisions
     0008400E  _scene_51_collisions               scene_51_collisions
     00085C7E  ___func_scene_52_collisions        scene_52_collisions
     00085C7E  _scene_52_collisions               scene_52_collisions
     000878EE  ___func_tileset_18                 tileset_18
     000878EE  _tileset_18                        tileset_18

ASxxxx Linker V03.00 + NoICE + sdld,  page 86.
Hexadecimal  [32-Bits]

Area                                    Addr        Size        Decimal Bytes (Attributes)
--------------------------------        ----        ----        ------- ----- ------------
_CODE_11                            000B4000    00004000 =       16384. bytes (REL,CON)

      Value  Global                              Global Defined In Module
      -----  --------------------------------   ------------------------
     000B4000  ___func_background_10              background_10
     000B4000  _background_10                     background_10
     000B400E  ___func_scene_11_collisions        scene_11_collisions
     000B400E  _scene_11_collisions               scene_11_collisions
     000B518E  _script_s123_init                  
     000B52FC  ___func_tileset_11                 tileset_11
     000B52FC  _tileset_11                        tileset_11
     000B697E  ___func_tileset_12                 tileset_12
     000B697E  _tileset_12                        tileset_12
ASxxxx Linker V03.00 + NoICE + sdld,  page 87.
Hexadecimal  [32-Bits]

Area                                    Addr        Size        Decimal Bytes (Attributes)
--------------------------------        ----        ----        ------- ----- ------------
_CODE_36                            00244000    00003FFF =       16383. bytes (REL,CON)

      Value  Global                              Global Defined In Module
      -----  --------------------------------   ------------------------
     00244000  ___func_background_100             background_100
     00244000  _background_100                    background_100
     0024400E  ___func_scene_40_collisions        scene_40_collisions
     0024400E  _scene_40_collisions               scene_40_collisions
     002446CE  ___func_scene_77_collisions        scene_77_collisions
     002446CE  _scene_77_collisions               scene_77_collisions
     00244DCE  ___func_scene_79_collisions        scene_79_collisions
     00244DCE  _scene_79_collisions               scene_79_collisions
     002454CE  ___func_spritesheet_33             spritesheet_33
     002454CE  _spritesheet_33_metasprite_0       spritesheet_33
     002454F2  _spritesheet_33_metasprite_1       spritesheet_33
     00245516  _spritesheet_33_metasprite_2       spritesheet_33
     0024553A  _spritesheet_33_metasprite_3       spritesheet_33
     0024555E  _spritesheet_33_metasprite_4       spritesheet_33
     00245582  _spritesheet_33_metasprite_5       spritesheet_33
     002455A6  _spritesheet_33_metasprite_6       spritesheet_33
     002455CA  _spritesheet_33_metasprite_7       spritesheet_33
     002455EE  _spritesheet_33_metasprite_8       spritesheet_33
     002455F2  _spritesheet_33_metasprite_9       spritesheet_33
     00245616  _spritesheet_33_metasprite_10      spritesheet_33
     0024563A  _spritesheet_33_metasprite_11      spritesheet_33
     0024565E  _spritesheet_33_metasprite_12      spritesheet_33
     00245682  _spritesheet_33_metasprite_13      spritesheet_33
     002456A6  _spritesheet_33_metasprite_14      spritesheet_33
     002456CA  _spritesheet_33_metasprites        spritesheet_33
     002456E8  _spritesheet_33_animations         spritesheet_33
     002456F8  _spritesheet_33_animations_looku   spritesheet_33
     002456FA  _spritesheet_33                    spritesheet_33
     0024570B  ___func_tilemap_53                 tilemap_53
     0024570B  _tilemap_53                        tilemap_53
     00245E0B  ___func_tilemap_54                 tilemap_54
     00245E0B  _tilemap_54                        tilemap_54
     0024650B  ___func_tilemap_74                 tilemap_74
     0024650B  _tilemap_74                        tilemap_74
     00246C0B  ___func_tilemap_88                 tilemap_88
     00246C0B  _tilemap_88                        tilemap_88
     002472CB  ___func_tileset_28                 tileset_28
     002472CB  _tileset_28                        tileset_28
     0024795D  ___func_tileset_8                  tileset_8
     0024795D  _tileset_8                         tileset_8

ASxxxx Linker V03.00 + NoICE + sdld,  page 88.
Hexadecimal  [32-Bits]

Area                                    Addr        Size        Decimal Bytes (Attributes)
--------------------------------        ----        ----        ------- ----- ------------
_CODE_12                            000C4000    00004000 =       16384. bytes (REL,CON)

      Value  Global                              Global Defined In Module
      -----  --------------------------------   ------------------------
     000C4000  ___func_cursor_image               cursor_image
     000C4000  _cursor_image                      cursor_image
     000C4010  ___func_scene_9_collisions         scene_9_collisions
     000C4010  _scene_9_collisions                scene_9_collisions
     000C5190  _script_s132_init                  
     000C52FB  _script_s7a1_interact              
     000C52FC  ___func_tileset_33                 tileset_33
     000C52FC  _tileset_33                        tileset_33
     000C697E  ___func_tileset_34                 tileset_34
     000C697E  _tileset_34                        tileset_34

ASxxxx Linker V03.00 + NoICE + sdld,  page 89.
Hexadecimal  [32-Bits]

Area                                    Addr        Size        Decimal Bytes (Attributes)
--------------------------------        ----        ----        ------- ----- ------------
_CODE_34                            00224000    00004000 =       16384. bytes (REL,CON)

      Value  Global                              Global Defined In Module
      -----  --------------------------------   ------------------------
     00224000  ___func_font_0                     font_0
     002247F0  _font_0                            font_0
     002247F8  ___func_scene_124_collisions       scene_124_collisions
     002247F8  _scene_124_collisions              scene_124_collisions
     00224FC8  ___func_scene_4_collisions         scene_4_collisions
     00224FC8  _scene_4_collisions                scene_4_collisions
     00225798  ___func_scene_80_collisions        scene_80_collisions
     00225798  _scene_80_collisions               scene_80_collisions
     00226008  _script_s130_init                  
     00226048  ___func_tilemap_16                 tilemap_16
     00226048  _tilemap_16                        tilemap_16
     00226750  ___func_tilemap_3                  tilemap_3
     00226750  _tilemap_3                         tilemap_3
     00226F20  ___func_tilemap_55                 tilemap_55
     00226F20  _tilemap_55                        tilemap_55
     00227790  ___func_tilemap_67                 tilemap_67
     00227790  _tilemap_67                        tilemap_67

ASxxxx Linker V03.00 + NoICE + sdld,  page 90.
Hexadecimal  [32-Bits]

Area                                    Addr        Size        Decimal Bytes (Attributes)
--------------------------------        ----        ----        ------- ----- ------------
_CODE_46                            002E4000    00003FFE =       16382. bytes (REL,CON)

      Value  Global                              Global Defined In Module
      -----  --------------------------------   ------------------------
     002E4000  ___func_frame_image                frame_image
     002E4000  _frame_image                       frame_image
     002E4090  ___func_scene_10_actors            scene_10_actors
     002E4090  _scene_10_actors                   scene_10_actors
     002E4138  ___func_scene_10                   scene_10
     002E4138  _scene_10                          scene_10
     002E4172  ___func_scene_100                  scene_100
     002E4172  _scene_100                         scene_100
     002E41AC  ___func_scene_101                  scene_101
     002E41AC  _scene_101                         scene_101
     002E41E6  ___func_scene_106_actors           scene_106_actors
     002E41E6  _scene_106_actors                  scene_106_actors
     002E4256  ___func_scene_107_actors           scene_107_actors
     002E4256  _scene_107_actors                  scene_107_actors
     002E42C6  ___func_scene_11_actors            scene_11_actors
     002E42C6  _scene_11_actors                   scene_11_actors
     002E43DE  ___func_scene_112_actors           scene_112_actors
     002E43DE  _scene_112_actors                  scene_112_actors
     002E44BE  ___func_scene_114_actors           scene_114_actors
     002E44BE  _scene_114_actors                  scene_114_actors
     002E452E  ___func_scene_123_actors           scene_123_actors
     002E452E  _scene_123_actors                  scene_123_actors
     002E45D6  ___func_scene_129_actors           scene_129_actors
     002E45D6  _scene_129_actors                  scene_129_actors
     002E46B6  ___func_scene_14_actors            scene_14_actors
     002E46B6  _scene_14_actors                   scene_14_actors
     002E475E  ___func_scene_15_actors            scene_15_actors
     002E475E  _scene_15_actors                   scene_15_actors
     002E47CE  ___func_scene_16_actors            scene_16_actors
     002E47CE  _scene_16_actors                   scene_16_actors
     002E4876  ___func_scene_17_actors            scene_17_actors
     002E4876  _scene_17_actors                   scene_17_actors
     002E48E6  ___func_scene_19_actors            scene_19_actors
     002E48E6  _scene_19_actors                   scene_19_actors
     002E498E  ___func_scene_20_actors            scene_20_actors
     002E498E  _scene_20_actors                   scene_20_actors
     002E49FE  ___func_scene_23_triggers          scene_23_triggers
     002E49FE  _scene_23_triggers                 scene_23_triggers
     002E4A46  ___func_scene_7_actors             scene_7_actors
     002E4A46  _scene_7_actors                    scene_7_actors
     002E4AB6  ___func_scene_9_actors             scene_9_actors
     002E4AB6  _scene_9_actors                    scene_9_actors
     002E4B5E  ___func_scene_96_actors            scene_96_actors
     002E4B5E  _scene_96_actors                   scene_96_actors
     002E4BCE  ___func_scene_97_actors            scene_97_actors
     002E4BCE  _scene_97_actors                   scene_97_actors
     002E4CAE  ___func_scene_98_actors            scene_98_actors
     002E4CAE  _scene_98_actors                   scene_98_actors
     002E4D1E  _script_engine_init                
     002E4D66  _script_input_10                   
ASxxxx Linker V03.00 + NoICE + sdld,  page 91.
Hexadecimal  [32-Bits]

Area                                    Addr        Size        Decimal Bytes (Attributes)
--------------------------------        ----        ----        ------- ----- ------------
_CODE_46                            002E4000    00003FFE =       16382. bytes (REL,CON)

      Value  Global                              Global Defined In Module
      -----  --------------------------------   ------------------------
     002E4DFD  _script_input_11                   
     002E4E78  _script_input_12                   
     002E4EF3  _script_input_6                    
     002E4F8A  _script_input_8                    
     002E5021  _script_input_9                    
     002E50B8  _script_s0_init                    
     002E5124  _script_s1_init                    
     002E5197  _script_s100_init                  
     002E51FA  _script_s102t0_interact            
     002E5293  _script_s104t0_interact            
     002E5378  _script_s105t0_interact            
     002E53CE  _script_s105t1_interact            
     002E540B  _script_s106_init                  
     002E54BD  _script_s107_init                  
     002E555C  _script_s108t2_interact            
     002E55B6  _script_s110_init                  
     002E5708  _script_s110t0_interact            
     002E5754  _script_s111_init                  
     002E57AE  _script_s113_init                  
     002E582D  _script_s114_init                  
     002E5922  _script_s116_init                  
     002E59D6  _script_s117t0_interact            
     002E5A85  _script_s119t0_interact            
     002E5AE0  _script_s120_init                  
     002E5BC2  _script_s121_init                  
     002E5C47  _script_s122_init                  
     002E5CB3  _script_s124_init                  
     002E5D16  _script_s125_init                  
     002E5D9B  _script_s126_init                  
     002E5E07  _script_s127_init                  
     002E5E73  _script_s128_init                  
     002E5F52  _script_s129_init                  
     002E5FBE  _script_s131_init                  
     002E6077  _script_s134_init                  
     002E6157  _script_s135_init                  
     002E619D  _script_s136_init                  
     002E61E3  _script_s137_init                  
     002E6229  _script_s138_init                  
     002E626F  _script_s139_init                  
     002E62B5  _script_s140_init                  
     002E62FB  _script_s141_init                  
     002E6341  _script_s142_init                  
     002E6387  _script_s143_init                  
     002E63CD  _script_s144_init                  
     002E6413  _script_s90_init                   
     002E64AA  _script_s91_init                   
     002E650E  _script_s92_init                   
     002E657A  _script_s93_init                   
     002E65E6  _script_s94_init                   
     002E6652  _script_s95_init                   
     002E66BE  _script_s96_init                   
ASxxxx Linker V03.00 + NoICE + sdld,  page 92.
Hexadecimal  [32-Bits]

Area                                    Addr        Size        Decimal Bytes (Attributes)
--------------------------------        ----        ----        ------- ----- ------------
_CODE_46                            002E4000    00003FFE =       16382. bytes (REL,CON)

      Value  Global                              Global Defined In Module
      -----  --------------------------------   ------------------------
     002E672A  _script_s97_init                   
     002E6796  _script_s98_init                   
     002E6802  _script_s99_init                   
     002E6865  _script_s9a2_update                
     002E68AB  ___func_spritesheet_1              spritesheet_1
     002E68AB  _spritesheet_1_metasprite_0        spritesheet_1
     002E68CF  _spritesheet_1_metasprite_1        spritesheet_1
     002E68F3  _spritesheet_1_metasprites         spritesheet_1
     002E68F7  _spritesheet_1_animations          spritesheet_1
     002E6907  _spritesheet_1_animations_lookup   spritesheet_1
     002E6909  _spritesheet_1                     spritesheet_1
     002E691A  ___func_spritesheet_10             spritesheet_10
     002E691A  _spritesheet_10_metasprite_0       spritesheet_10
     002E691E  _spritesheet_10_metasprite_1       spritesheet_10
     002E6942  _spritesheet_10_metasprite_2       spritesheet_10
     002E6966  _spritesheet_10_metasprite_3       spritesheet_10
     002E698A  _spritesheet_10_metasprite_4       spritesheet_10
     002E69AE  _spritesheet_10_metasprites        spritesheet_10
     002E69B8  _spritesheet_10_animations         spritesheet_10
     002E69C8  _spritesheet_10_animations_looku   spritesheet_10
     002E69CA  _spritesheet_10                    spritesheet_10
     002E69DB  ___func_spritesheet_11             spritesheet_11
     002E69DB  _spritesheet_11_metasprite_0       spritesheet_11
     002E69E7  _spritesheet_11_metasprite_1       spritesheet_11
     002E69F3  _spritesheet_11_metasprites        spritesheet_11
     002E69F7  _spritesheet_11_animations         spritesheet_11
     002E6A07  _spritesheet_11_animations_looku   spritesheet_11
     002E6A09  _spritesheet_11                    spritesheet_11
     002E6A1A  ___func_spritesheet_12             spritesheet_12
     002E6A1A  _spritesheet_12_metasprite_0       spritesheet_12
     002E6A1E  _spritesheet_12_metasprite_1       spritesheet_12
     002E6A42  _spritesheet_12_metasprite_2       spritesheet_12
     002E6A66  _spritesheet_12_metasprite_3       spritesheet_12
     002E6A8A  _spritesheet_12_metasprite_4       spritesheet_12
     002E6AAE  _spritesheet_12_metasprites        spritesheet_12
     002E6AB8  _spritesheet_12_animations         spritesheet_12
     002E6AC8  _spritesheet_12_animations_looku   spritesheet_12
     002E6ACA  _spritesheet_12                    spritesheet_12
     002E6ADB  ___func_spritesheet_17             spritesheet_17
     002E6ADB  _spritesheet_17_metasprite_0       spritesheet_17
     002E6AE7  _spritesheet_17_metasprite_1       spritesheet_17
     002E6AF3  _spritesheet_17_metasprite_2       spritesheet_17
     002E6AFF  _spritesheet_17_metasprite_3       spritesheet_17
     002E6B0B  _spritesheet_17_metasprites        spritesheet_17
     002E6B15  _spritesheet_17_animations         spritesheet_17
     002E6B25  _spritesheet_17_animations_looku   spritesheet_17
     002E6B27  _spritesheet_17                    spritesheet_17
     002E6B38  ___func_spritesheet_18             spritesheet_18
     002E6B38  _spritesheet_18_metasprite_0       spritesheet_18
     002E6B3C  _spritesheet_18_metasprite_1       spritesheet_18
     002E6B48  _spritesheet_18_metasprite_2       spritesheet_18
ASxxxx Linker V03.00 + NoICE + sdld,  page 93.
Hexadecimal  [32-Bits]

Area                                    Addr        Size        Decimal Bytes (Attributes)
--------------------------------        ----        ----        ------- ----- ------------
_CODE_46                            002E4000    00003FFE =       16382. bytes (REL,CON)

      Value  Global                              Global Defined In Module
      -----  --------------------------------   ------------------------
     002E6B54  _spritesheet_18_metasprite_3       spritesheet_18
     002E6B60  _spritesheet_18_metasprite_4       spritesheet_18
     002E6B6C  _spritesheet_18_metasprite_5       spritesheet_18
     002E6B78  _spritesheet_18_metasprite_6       spritesheet_18
     002E6B84  _spritesheet_18_metasprite_7       spritesheet_18
     002E6B90  _spritesheet_18_metasprite_8       spritesheet_18
     002E6B9C  _spritesheet_18_metasprite_9       spritesheet_18
     002E6BA8  _spritesheet_18_metasprite_10      spritesheet_18
     002E6BB4  _spritesheet_18_metasprite_11      spritesheet_18
     002E6BBC  _spritesheet_18_metasprite_12      spritesheet_18
     002E6BC4  _spritesheet_18_metasprites        spritesheet_18
     002E6BE4  _spritesheet_18_animations         spritesheet_18
     002E6BF4  _spritesheet_18_animations_looku   spritesheet_18
     002E6BF6  _spritesheet_18                    spritesheet_18
     002E6C07  ___func_spritesheet_19             spritesheet_19
     002E6C07  _spritesheet_19_metasprite_0       spritesheet_19
     002E6C13  _spritesheet_19_metasprite_1       spritesheet_19
     002E6C1F  _spritesheet_19_metasprite_2       spritesheet_19
     002E6C2B  _spritesheet_19_metasprites        spritesheet_19
     002E6C31  _spritesheet_19_animations         spritesheet_19
     002E6C41  _spritesheet_19_animations_looku   spritesheet_19
     002E6C43  _spritesheet_19                    spritesheet_19
     002E6C54  ___func_spritesheet_20             spritesheet_20
     002E6C54  _spritesheet_20_metasprite_0       spritesheet_20
     002E6C60  _spritesheet_20_metasprite_1       spritesheet_20
     002E6C6C  _spritesheet_20_metasprite_2       spritesheet_20
     002E6C78  _spritesheet_20_metasprites        spritesheet_20
     002E6C7E  _spritesheet_20_animations         spritesheet_20
     002E6C8E  _spritesheet_20_animations_looku   spritesheet_20
     002E6C90  _spritesheet_20                    spritesheet_20
     002E6CA1  ___func_spritesheet_21             spritesheet_21
     002E6CA1  _spritesheet_21_metasprite_0       spritesheet_21
     002E6CA5  _spritesheet_21_metasprite_1       spritesheet_21
     002E6CC9  _spritesheet_21_metasprite_2       spritesheet_21
     002E6CED  _spritesheet_21_metasprite_3       spritesheet_21
     002E6D11  _spritesheet_21_metasprite_4       spritesheet_21
     002E6D35  _spritesheet_21_metasprite_5       spritesheet_21
     002E6D59  _spritesheet_21_metasprite_6       spritesheet_21
     002E6D7D  _spritesheet_21_metasprites        spritesheet_21
     002E6D8B  _spritesheet_21_animations         spritesheet_21
     002E6D9B  _spritesheet_21_animations_looku   spritesheet_21
     002E6D9D  _spritesheet_21                    spritesheet_21
     002E6DAE  ___func_spritesheet_22             spritesheet_22
     002E6DAE  _spritesheet_22_metasprite_0       spritesheet_22
     002E6DB2  _spritesheet_22_metasprite_1       spritesheet_22
     002E6DD6  _spritesheet_22_metasprite_2       spritesheet_22
     002E6DFA  _spritesheet_22_metasprite_3       spritesheet_22
     002E6E1E  _spritesheet_22_metasprite_4       spritesheet_22
     002E6E42  _spritesheet_22_metasprites        spritesheet_22
     002E6E4C  _spritesheet_22_animations         spritesheet_22
     002E6E5C  _spritesheet_22_animations_looku   spritesheet_22
ASxxxx Linker V03.00 + NoICE + sdld,  page 94.
Hexadecimal  [32-Bits]

Area                                    Addr        Size        Decimal Bytes (Attributes)
--------------------------------        ----        ----        ------- ----- ------------
_CODE_46                            002E4000    00003FFE =       16382. bytes (REL,CON)

      Value  Global                              Global Defined In Module
      -----  --------------------------------   ------------------------
     002E6E5E  _spritesheet_22                    spritesheet_22
     002E6E6F  ___func_spritesheet_23             spritesheet_23
     002E6E6F  _spritesheet_23_metasprite_0       spritesheet_23
     002E6E73  _spritesheet_23_metasprite_1       spritesheet_23
     002E6E97  _spritesheet_23_metasprite_2       spritesheet_23
     002E6EBB  _spritesheet_23_metasprite_3       spritesheet_23
     002E6EDF  _spritesheet_23_metasprite_4       spritesheet_23
     002E6F03  _spritesheet_23_metasprite_5       spritesheet_23
     002E6F27  _spritesheet_23_metasprite_6       spritesheet_23
     002E6F4B  _spritesheet_23_metasprite_7       spritesheet_23
     002E6F6F  _spritesheet_23_metasprite_8       spritesheet_23
     002E6F93  _spritesheet_23_metasprites        spritesheet_23
     002E6FA5  _spritesheet_23_animations         spritesheet_23
     002E6FB5  _spritesheet_23_animations_looku   spritesheet_23
     002E6FB7  _spritesheet_23                    spritesheet_23
     002E6FC8  ___func_spritesheet_24             spritesheet_24
     002E6FC8  _spritesheet_24_metasprite_0       spritesheet_24
     002E6FCC  _spritesheet_24_metasprite_1       spritesheet_24
     002E6FEC  _spritesheet_24_metasprite_2       spritesheet_24
     002E700C  _spritesheet_24_metasprite_3       spritesheet_24
     002E702C  _spritesheet_24_metasprite_4       spritesheet_24
     002E704C  _spritesheet_24_metasprites        spritesheet_24
     002E7056  _spritesheet_24_animations         spritesheet_24
     002E7066  _spritesheet_24_animations_looku   spritesheet_24
     002E7068  _spritesheet_24                    spritesheet_24
     002E7079  ___func_spritesheet_27             spritesheet_27
     002E7079  _spritesheet_27_metasprite_0       spritesheet_27
     002E707D  _spritesheet_27_metasprite_1       spritesheet_27
     002E7099  _spritesheet_27_metasprite_2       spritesheet_27
     002E70BD  _spritesheet_27_metasprite_3       spritesheet_27
     002E70DD  _spritesheet_27_metasprite_4       spritesheet_27
     002E70F9  _spritesheet_27_metasprite_5       spritesheet_27
     002E711D  _spritesheet_27_metasprite_6       spritesheet_27
     002E713D  _spritesheet_27_metasprites        spritesheet_27
     002E714B  _spritesheet_27_animations         spritesheet_27
     002E715B  _spritesheet_27_animations_looku   spritesheet_27
     002E715D  _spritesheet_27                    spritesheet_27
     002E716E  ___func_spritesheet_28             spritesheet_28
     002E716E  _spritesheet_28_metasprite_0       spritesheet_28
     002E719E  _spritesheet_28_metasprite_1       spritesheet_28
     002E71D2  _spritesheet_28_metasprite_2       spritesheet_28
     002E7206  _spritesheet_28_metasprite_3       spritesheet_28
     002E7236  _spritesheet_28_metasprite_4       spritesheet_28
     002E726A  _spritesheet_28_metasprite_5       spritesheet_28
     002E729E  _spritesheet_28_metasprite_6       spritesheet_28
     002E72A2  _spritesheet_28_metasprites        spritesheet_28
     002E72B0  _spritesheet_28_animations         spritesheet_28
     002E72C0  _spritesheet_28_animations_looku   spritesheet_28
     002E72C2  _spritesheet_28                    spritesheet_28
     002E72D3  ___func_spritesheet_29             spritesheet_29
     002E72D3  _spritesheet_29_metasprite_0       spritesheet_29
ASxxxx Linker V03.00 + NoICE + sdld,  page 95.
Hexadecimal  [32-Bits]

Area                                    Addr        Size        Decimal Bytes (Attributes)
--------------------------------        ----        ----        ------- ----- ------------
_CODE_46                            002E4000    00003FFE =       16382. bytes (REL,CON)

      Value  Global                              Global Defined In Module
      -----  --------------------------------   ------------------------
     002E72F7  _spritesheet_29_metasprite_1       spritesheet_29
     002E731B  _spritesheet_29_metasprite_2       spritesheet_29
     002E733F  _spritesheet_29_metasprite_3       spritesheet_29
     002E7363  _spritesheet_29_metasprites        spritesheet_29
     002E736B  _spritesheet_29_animations         spritesheet_29
     002E737B  _spritesheet_29_animations_looku   spritesheet_29
     002E737D  _spritesheet_29                    spritesheet_29
     002E738E  ___func_spritesheet_30             spritesheet_30
     002E738E  _spritesheet_30_metasprite_0       spritesheet_30
     002E7392  _spritesheet_30_metasprite_1       spritesheet_30
     002E73C6  _spritesheet_30_metasprite_2       spritesheet_30
     002E73FA  _spritesheet_30_metasprite_3       spritesheet_30
     002E742E  _spritesheet_30_metasprite_4       spritesheet_30
     002E7462  _spritesheet_30_metasprites        spritesheet_30
     002E746C  _spritesheet_30_animations         spritesheet_30
     002E747C  _spritesheet_30_animations_looku   spritesheet_30
     002E747E  _spritesheet_30                    spritesheet_30
     002E748F  ___func_spritesheet_31             spritesheet_31
     002E748F  _spritesheet_31_metasprite_0       spritesheet_31
     002E7493  _spritesheet_31_metasprite_1       spritesheet_31
     002E74B3  _spritesheet_31_metasprite_2       spritesheet_31
     002E74D3  _spritesheet_31_metasprite_3       spritesheet_31
     002E74F3  _spritesheet_31_metasprite_4       spritesheet_31
     002E7513  _spritesheet_31_metasprites        spritesheet_31
     002E7521  _spritesheet_31_animations         spritesheet_31
     002E7531  _spritesheet_31_animations_looku   spritesheet_31
     002E7533  _spritesheet_31                    spritesheet_31
     002E7544  ___func_spritesheet_32             spritesheet_32
     002E7544  _spritesheet_32_metasprite_0       spritesheet_32
     002E7550  _spritesheet_32_metasprite_1       spritesheet_32
     002E755C  _spritesheet_32_metasprite_2       spritesheet_32
     002E7568  _spritesheet_32_metasprite_3       spritesheet_32
     002E7574  _spritesheet_32_metasprites        spritesheet_32
     002E757C  _spritesheet_32_animations         spritesheet_32
     002E758C  _spritesheet_32_animations_looku   spritesheet_32
     002E758E  _spritesheet_32                    spritesheet_32
     002E759F  ___func_spritesheet_34             spritesheet_34
     002E759F  _spritesheet_34_metasprite_0       spritesheet_34
     002E75AB  _spritesheet_34_metasprite_1       spritesheet_34
     002E75B7  _spritesheet_34_metasprite_2       spritesheet_34
     002E75BB  _spritesheet_34_metasprites        spritesheet_34
     002E75C3  _spritesheet_34_animations         spritesheet_34
     002E75E3  _spritesheet_34_animations_looku   spritesheet_34
     002E75EB  _spritesheet_34                    spritesheet_34
     002E75FC  ___func_spritesheet_4              spritesheet_4
     002E75FC  _spritesheet_4_metasprite_0        spritesheet_4
     002E7600  _spritesheet_4_metasprite_1        spritesheet_4
     002E761C  _spritesheet_4_metasprite_2        spritesheet_4
     002E7638  _spritesheet_4_metasprites         spritesheet_4
     002E763E  _spritesheet_4_animations          spritesheet_4
     002E764E  _spritesheet_4_animations_lookup   spritesheet_4
ASxxxx Linker V03.00 + NoICE + sdld,  page 96.
Hexadecimal  [32-Bits]

Area                                    Addr        Size        Decimal Bytes (Attributes)
--------------------------------        ----        ----        ------- ----- ------------
_CODE_46                            002E4000    00003FFE =       16382. bytes (REL,CON)

      Value  Global                              Global Defined In Module
      -----  --------------------------------   ------------------------
     002E7650  _spritesheet_4                     spritesheet_4
     002E7661  ___func_spritesheet_5              spritesheet_5
     002E7661  _spritesheet_5_metasprite_0        spritesheet_5
     002E7665  _spritesheet_5_metasprite_1        spritesheet_5
     002E7689  _spritesheet_5_metasprite_2        spritesheet_5
     002E76AD  _spritesheet_5_metasprites         spritesheet_5
     002E76B3  _spritesheet_5_animations          spritesheet_5
     002E76C3  _spritesheet_5_animations_lookup   spritesheet_5
     002E76C5  _spritesheet_5                     spritesheet_5
     002E76D6  ___func_spritesheet_7              spritesheet_7
     002E76D6  _spritesheet_7_metasprite_0        spritesheet_7
     002E76E2  _spritesheet_7_metasprite_1        spritesheet_7
     002E76EE  _spritesheet_7_metasprite_2        spritesheet_7
     002E76FA  _spritesheet_7_metasprite_3        spritesheet_7
     002E7706  _spritesheet_7_metasprite_4        spritesheet_7
     002E7712  _spritesheet_7_metasprite_5        spritesheet_7
     002E771E  _spritesheet_7_metasprite_6        spritesheet_7
     002E772A  _spritesheet_7_metasprite_7        spritesheet_7
     002E7736  _spritesheet_7_metasprites         spritesheet_7
     002E774E  _spritesheet_7_animations          spritesheet_7
     002E775E  _spritesheet_7_animations_lookup   spritesheet_7
     002E7760  _spritesheet_7                     spritesheet_7
     002E7771  ___func_spritesheet_9              spritesheet_9
     002E7771  _spritesheet_9_metasprite_0        spritesheet_9
     002E777D  _spritesheet_9_metasprite_1        spritesheet_9
     002E7789  _spritesheet_9_metasprite_2        spritesheet_9
     002E7795  _spritesheet_9_metasprite_3        spritesheet_9
     002E77A1  _spritesheet_9_metasprite_4        spritesheet_9
     002E77AD  _spritesheet_9_metasprites         spritesheet_9
     002E77B7  _spritesheet_9_animations          spritesheet_9
     002E77C7  _spritesheet_9_animations_lookup   spritesheet_9
     002E77C9  _spritesheet_9                     spritesheet_9
     002E77DA  ___func_tilemap_72                 tilemap_72
     002E77DA  _tilemap_72                        tilemap_72
     002E7942  ___func_tileset_61                 tileset_61
     002E7942  _tileset_61                        tileset_61
     002E7984  ___func_tileset_64                 tileset_64
     002E7984  _tileset_64                        tileset_64
     002E79C6  ___func_tileset_65                 tileset_65
     002E79C6  _tileset_65                        tileset_65
     002E7A28  ___func_tileset_66                 tileset_66
     002E7A28  _tileset_66                        tileset_66
     002E7AAA  ___func_tileset_70                 tileset_70
     002E7AAA  _tileset_70                        tileset_70
     002E7B6C  ___func_tileset_72                 tileset_72
     002E7B6C  _tileset_72                        tileset_72
     002E7BEE  ___func_tileset_77                 tileset_77
     002E7BEE  _tileset_77                        tileset_77
     002E7C30  ___func_tileset_78                 tileset_78
     002E7C30  _tileset_78                        tileset_78
     002E7C72  ___func_tileset_79                 tileset_79
ASxxxx Linker V03.00 + NoICE + sdld,  page 97.
Hexadecimal  [32-Bits]

Area                                    Addr        Size        Decimal Bytes (Attributes)
--------------------------------        ----        ----        ------- ----- ------------
_CODE_46                            002E4000    00003FFE =       16382. bytes (REL,CON)

      Value  Global                              Global Defined In Module
      -----  --------------------------------   ------------------------
     002E7C72  _tileset_79                        tileset_79
     002E7CB4  ___func_tileset_80                 tileset_80
     002E7CB4  _tileset_80                        tileset_80
     002E7D76  ___func_tileset_81                 tileset_81
     002E7D76  _tileset_81                        tileset_81
     002E7E38  ___func_tileset_87                 tileset_87
     002E7E38  _tileset_87                        tileset_87
     002E7E7A  ___func_tileset_93                 tileset_93
     002E7E7A  _tileset_93                        tileset_93
     002E7F7C  ___func_tileset_95                 tileset_95
     002E7F7C  _tileset_95                        tileset_95

ASxxxx Linker V03.00 + NoICE + sdld,  page 98.
Hexadecimal  [32-Bits]

Area                                    Addr        Size        Decimal Bytes (Attributes)
--------------------------------        ----        ----        ------- ----- ------------
_CODE_5                             00054000    00004000 =       16384. bytes (REL,CON)

      Value  Global                              Global Defined In Module
      -----  --------------------------------   ------------------------
     00054000  ___func_palette_0                  palette_0
     00054000  _palette_0                         palette_0
     00054003  ___func_scene_23_collisions        scene_23_collisions
     00054003  _scene_23_collisions               scene_23_collisions
     000551D3  ___func_scene_56_collisions        scene_56_collisions
     000551D3  _scene_56_collisions               scene_56_collisions
     00057E5B  ___func_spritesheet_14             spritesheet_14
     00057E5B  _spritesheet_14_metasprite_0       spritesheet_14
     00057E7F  _spritesheet_14_metasprite_1       spritesheet_14
     00057EA3  _spritesheet_14_metasprite_2       spritesheet_14
     00057EC7  _spritesheet_14_metasprite_3       spritesheet_14
     00057EEB  _spritesheet_14_metasprite_4       spritesheet_14
     00057EEF  _spritesheet_14_metasprite_5       spritesheet_14
     00057F13  _spritesheet_14_metasprite_6       spritesheet_14
     00057F37  _spritesheet_14_metasprite_7       spritesheet_14
     00057F5B  _spritesheet_14_metasprite_8       spritesheet_14
     00057F7F  _spritesheet_14_metasprite_9       spritesheet_14
     00057FA3  _spritesheet_14_metasprite_10      spritesheet_14
     00057FC7  _spritesheet_14_metasprites        spritesheet_14
     00057FDD  _spritesheet_14_animations         spritesheet_14
     00057FED  _spritesheet_14_animations_looku   spritesheet_14
     00057FEF  _spritesheet_14                    spritesheet_14

ASxxxx Linker V03.00 + NoICE + sdld,  page 99.
Hexadecimal  [32-Bits]

Area                                    Addr        Size        Decimal Bytes (Attributes)
--------------------------------        ----        ----        ------- ----- ------------
_CODE_17                            00114000    00003FFE =       16382. bytes (REL,CON)

      Value  Global                              Global Defined In Module
      -----  --------------------------------   ------------------------
     00114000  ___func_palette_1                  palette_1
     00114000  _palette_1                         palette_1
     00114003  ___func_scene_59_collisions        scene_59_collisions
     00114003  _scene_59_collisions               scene_59_collisions
     00115503  _script_s5_init                    
     001155FE  ___func_tilemap_11                 tilemap_11
     001155FE  _tilemap_11                        tilemap_11
     00116AFE  ___func_tilemap_12                 tilemap_12
     00116AFE  _tilemap_12                        tilemap_12
ASxxxx Linker V03.00 + NoICE + sdld,  page 100.
Hexadecimal  [32-Bits]

Area                                    Addr        Size        Decimal Bytes (Attributes)
--------------------------------        ----        ----        ------- ----- ------------
_CODE_14                            000E4000    00004000 =       16384. bytes (REL,CON)

      Value  Global                              Global Defined In Module
      -----  --------------------------------   ------------------------
     000E4000  ___func_scene_0_collisions         scene_0_collisions
     000E4000  _scene_0_collisions                scene_0_collisions
     000E4168  _script_s22t0_interact             
     000E417C  ___func_tilemap_122                tilemap_122
     000E417C  _tilemap_122                       tilemap_122
     000E52FC  ___func_tileset_50                 tileset_50
     000E52FC  _tileset_50                        tileset_50
     000E697E  ___func_tileset_54                 tileset_54
     000E697E  _tileset_54                        tileset_54
ASxxxx Linker V03.00 + NoICE + sdld,  page 101.
Hexadecimal  [32-Bits]

Area                                    Addr        Size        Decimal Bytes (Attributes)
--------------------------------        ----        ----        ------- ----- ------------
_CODE_25                            00194000    00003FFE =       16382. bytes (REL,CON)

      Value  Global                              Global Defined In Module
      -----  --------------------------------   ------------------------
     00194000  ___func_scene_0                    scene_0
     00194000  _scene_0                           scene_0
     0019403A  ___func_scene_71_collisions        scene_71_collisions
     0019403A  _scene_71_collisions               scene_71_collisions
     00194C1A  ___func_scene_84_collisions        scene_84_collisions
     00194C1A  _scene_84_collisions               scene_84_collisions
     001957CA  ___func_tilemap_47                 tilemap_47
     001957CA  _tilemap_47                        tilemap_47
     001963AA  ___func_tilemap_60                 tilemap_60
     001963AA  _tilemap_60                        tilemap_60
     00196F5A  ___func_tileset_14                 tileset_14
     00196F5A  _tileset_14                        tileset_14
     00197B3C  ___func_tileset_75                 tileset_75
     00197B3C  _tileset_75                        tileset_75

ASxxxx Linker V03.00 + NoICE + sdld,  page 102.
Hexadecimal  [32-Bits]

Area                                    Addr        Size        Decimal Bytes (Attributes)
--------------------------------        ----        ----        ------- ----- ------------
_CODE_44                            002C4000    00003FFF =       16383. bytes (REL,CON)

      Value  Global                              Global Defined In Module
      -----  --------------------------------   ------------------------
     002C4000  ___func_scene_1_collisions         scene_1_collisions
     002C4000  _scene_1_collisions                scene_1_collisions
     002C4168  ___func_scene_106_collisions       scene_106_collisions
     002C4168  _scene_106_collisions              scene_106_collisions
     002C42D0  ___func_scene_107_collisions       scene_107_collisions
     002C42D0  _scene_107_collisions              scene_107_collisions
     002C4438  ___func_scene_113_collisions       scene_113_collisions
     002C4438  _scene_113_collisions              scene_113_collisions
     002C45A0  ___func_scene_114_collisions       scene_114_collisions
     002C45A0  _scene_114_collisions              scene_114_collisions
     002C4708  ___func_scene_116_collisions       scene_116_collisions
     002C4708  _scene_116_collisions              scene_116_collisions
     002C4870  ___func_scene_119_collisions       scene_119_collisions
     002C4870  _scene_119_collisions              scene_119_collisions
     002C49D8  ___func_scene_122_collisions       scene_122_collisions
     002C49D8  _scene_122_collisions              scene_122_collisions
     002C4B40  ___func_scene_125_collisions       scene_125_collisions
     002C4B40  _scene_125_collisions              scene_125_collisions
     002C4CA8  ___func_scene_126_collisions       scene_126_collisions
     002C4CA8  _scene_126_collisions              scene_126_collisions
     002C4E10  ___func_scene_127_collisions       scene_127_collisions
     002C4E10  _scene_127_collisions              scene_127_collisions
     002C4F78  ___func_scene_128_collisions       scene_128_collisions
     002C4F78  _scene_128_collisions              scene_128_collisions
     002C50E0  ___func_scene_129_collisions       scene_129_collisions
     002C50E0  _scene_129_collisions              scene_129_collisions
     002C5248  ___func_scene_13_collisions        scene_13_collisions
     002C5248  _scene_13_collisions               scene_13_collisions
     002C5428  ___func_scene_130_collisions       scene_130_collisions
     002C5428  _scene_130_collisions              scene_130_collisions
     002C5590  ___func_scene_131_collisions       scene_131_collisions
     002C5590  _scene_131_collisions              scene_131_collisions
     002C56F8  ___func_scene_132_collisions       scene_132_collisions
     002C56F8  _scene_132_collisions              scene_132_collisions
     002C5860  ___func_scene_133_collisions       scene_133_collisions
     002C5860  _scene_133_collisions              scene_133_collisions
     002C59C8  ___func_scene_134_collisions       scene_134_collisions
     002C59C8  _scene_134_collisions              scene_134_collisions
     002C5B30  ___func_scene_135_collisions       scene_135_collisions
     002C5B30  _scene_135_collisions              scene_135_collisions
     002C5C98  ___func_scene_136_collisions       scene_136_collisions
     002C5C98  _scene_136_collisions              scene_136_collisions
     002C5E00  ___func_scene_137_collisions       scene_137_collisions
     002C5E00  _scene_137_collisions              scene_137_collisions
     002C5F68  ___func_scene_138_collisions       scene_138_collisions
     002C5F68  _scene_138_collisions              scene_138_collisions
     002C60D0  ___func_scene_139_collisions       scene_139_collisions
     002C60D0  _scene_139_collisions              scene_139_collisions
     002C6238  ___func_scene_140_collisions       scene_140_collisions
     002C6238  _scene_140_collisions              scene_140_collisions
ASxxxx Linker V03.00 + NoICE + sdld,  page 103.
Hexadecimal  [32-Bits]

Area                                    Addr        Size        Decimal Bytes (Attributes)
--------------------------------        ----        ----        ------- ----- ------------
_CODE_44                            002C4000    00003FFF =       16383. bytes (REL,CON)

      Value  Global                              Global Defined In Module
      -----  --------------------------------   ------------------------
     002C63A0  ___func_scene_141_collisions       scene_141_collisions
     002C63A0  _scene_141_collisions              scene_141_collisions
     002C6508  ___func_scene_142_collisions       scene_142_collisions
     002C6508  _scene_142_collisions              scene_142_collisions
     002C6670  ___func_scene_143_collisions       scene_143_collisions
     002C6670  _scene_143_collisions              scene_143_collisions
     002C67D8  ___func_scene_144_collisions       scene_144_collisions
     002C67D8  _scene_144_collisions              scene_144_collisions
     002C6940  ___func_scene_145_collisions       scene_145_collisions
     002C6940  _scene_145_collisions              scene_145_collisions
     002C6AA8  ___func_scene_15_sprites           scene_15_sprites
     002C6AA8  _scene_15_sprites                  scene_15_sprites
     002C6AAE  ___func_scene_2_collisions         scene_2_collisions
     002C6AAE  _scene_2_collisions                scene_2_collisions
     002C6C16  ___func_scene_21_collisions        scene_21_collisions
     002C6C16  _scene_21_collisions               scene_21_collisions
     002C6DF6  ___func_scene_5_collisions         scene_5_collisions
     002C6DF6  _scene_5_collisions                scene_5_collisions
     002C6F5E  ___func_scene_63_collisions        scene_63_collisions
     002C6F5E  _scene_63_collisions               scene_63_collisions
     002C70C6  ___func_scene_65_collisions        scene_65_collisions
     002C70C6  _scene_65_collisions               scene_65_collisions
     002C722E  _script_s133_init                  
     002C7400  ___func_spritesheet_16             spritesheet_16
     002C7400  _spritesheet_16_metasprite_0       spritesheet_16
     002C742C  _spritesheet_16_metasprite_1       spritesheet_16
     002C7458  _spritesheet_16_metasprite_2       spritesheet_16
     002C7484  _spritesheet_16_metasprite_3       spritesheet_16
     002C74B0  _spritesheet_16_metasprite_4       spritesheet_16
     002C74DC  _spritesheet_16_metasprite_5       spritesheet_16
     002C7500  _spritesheet_16_metasprite_6       spritesheet_16
     002C7524  _spritesheet_16_metasprite_7       spritesheet_16
     002C7540  _spritesheet_16_metasprite_8       spritesheet_16
     002C755C  _spritesheet_16_metasprites        spritesheet_16
     002C756E  _spritesheet_16_animations         spritesheet_16
     002C757E  _spritesheet_16_animations_looku   spritesheet_16
     002C7580  _spritesheet_16                    spritesheet_16
     002C7591  ___func_tilemap_125                tilemap_125
     002C7591  _tilemap_125                       tilemap_125
     002C7771  ___func_tilemap_126                tilemap_126
     002C7771  _tilemap_126                       tilemap_126
     002C7951  ___func_tilemap_85                 tilemap_85
     002C7951  _tilemap_85                        tilemap_85
     002C7B49  ___func_tileset_26                 tileset_26
     002C7B49  _tileset_26                        tileset_26
     002C7D3B  ___func_tileset_68                 tileset_68
     002C7D3B  _tileset_68                        tileset_68
     002C7E3D  ___func_tileset_92                 tileset_92
     002C7E3D  _tileset_92                        tileset_92
ASxxxx Linker V03.00 + NoICE + sdld,  page 104.
Hexadecimal  [32-Bits]

Area                                    Addr        Size        Decimal Bytes (Attributes)
--------------------------------        ----        ----        ------- ----- ------------
_CODE_33                            00214000    00004000 =       16384. bytes (REL,CON)

      Value  Global                              Global Defined In Module
      -----  --------------------------------   ------------------------
     00214000  ___func_scene_1                    scene_1
     00214000  _scene_1                           scene_1
     0021403A  ___func_scene_12_collisions        scene_12_collisions
     0021403A  _scene_12_collisions               scene_12_collisions
     002143BE  ___func_scene_27_collisions        scene_27_collisions
     002143BE  _scene_27_collisions               scene_27_collisions
     00214C5E  ___func_scene_30_collisions        scene_30_collisions
     00214C5E  _scene_30_collisions               scene_30_collisions
     002154FE  ___func_scene_66_collisions        scene_66_collisions
     002154FE  _scene_66_collisions               scene_66_collisions
     00215D6E  ___func_tilemap_81                 tilemap_81
     00215D6E  _tilemap_81                        tilemap_81
     0021660E  ___func_tilemap_83                 tilemap_83
     0021660E  _tilemap_83                        tilemap_83
     00216EAE  ___func_tilemap_90                 tilemap_90
     00216EAE  _tilemap_90                        tilemap_90
     0021776E  ___func_tileset_40                 tileset_40
     0021776E  _tileset_40                        tileset_40
ASxxxx Linker V03.00 + NoICE + sdld,  page 105.
Hexadecimal  [32-Bits]

Area                                    Addr        Size        Decimal Bytes (Attributes)
--------------------------------        ----        ----        ------- ----- ------------
_CODE_20                            00144000    00003FFF =       16383. bytes (REL,CON)

      Value  Global                              Global Defined In Module
      -----  --------------------------------   ------------------------
     00144000  ___func_scene_10_collisions        scene_10_collisions
     00144000  _scene_10_collisions               scene_10_collisions
     00144F00  ___func_scene_101_sprites          scene_101_sprites
     00144F00  _scene_101_sprites                 scene_101_sprites
     00144F03  ___func_scene_11_triggers          scene_11_triggers
     00144F03  _scene_11_triggers                 scene_11_triggers
     00144F1B  ___func_scene_7_collisions         scene_7_collisions
     00144F1B  _scene_7_collisions                scene_7_collisions
     00145E1B  ___func_scene_89_collisions        scene_89_collisions
     00145E1B  _scene_89_collisions               scene_89_collisions
     00146D1B  ___func_tileset_1                  tileset_1
     00146D1B  _tileset_1                         tileset_1
     00147C2D  ___func_tileset_9                  tileset_9
     00147C2D  _tileset_9                         tileset_9

ASxxxx Linker V03.00 + NoICE + sdld,  page 106.
Hexadecimal  [32-Bits]

Area                                    Addr        Size        Decimal Bytes (Attributes)
--------------------------------        ----        ----        ------- ----- ------------
_CODE_6                             00064000    00004000 =       16384. bytes (REL,CON)

      Value  Global                              Global Defined In Module
      -----  --------------------------------   ------------------------
     00064000  ___func_scene_10_sprites           scene_10_sprites
     00064000  _scene_10_sprites                  scene_10_sprites
     00064006  ___func_tilemap_86                 tilemap_86
     00064006  _tilemap_86                        tilemap_86
     000651D6  ___func_tilemap_9                  tilemap_9
     000651D6  _tilemap_9                         tilemap_9
     00067E5E  ___func_tileset_21                 tileset_21
     00067E5E  _tileset_21                        tileset_21

ASxxxx Linker V03.00 + NoICE + sdld,  page 107.
Hexadecimal  [32-Bits]

Area                                    Addr        Size        Decimal Bytes (Attributes)
--------------------------------        ----        ----        ------- ----- ------------
_CODE_32                            00204000    00003FFF =       16383. bytes (REL,CON)

      Value  Global                              Global Defined In Module
      -----  --------------------------------   ------------------------
     00204000  ___func_scene_10_triggers          scene_10_triggers
     00204000  _scene_10_triggers                 scene_10_triggers
     00204010  ___func_scene_41_collisions        scene_41_collisions
     00204010  _scene_41_collisions               scene_41_collisions
     002048D0  ___func_scene_44_collisions        scene_44_collisions
     002048D0  _scene_44_collisions               scene_44_collisions
     00205190  ___func_scene_45_collisions        scene_45_collisions
     00205190  _scene_45_collisions               scene_45_collisions
     00205A50  ___func_spritesheet_2              spritesheet_2
     00205A50  _spritesheet_2_metasprite_0        spritesheet_2
     00205A74  _spritesheet_2_metasprite_1        spritesheet_2
     00205A98  _spritesheet_2_metasprite_2        spritesheet_2
     00205ABC  _spritesheet_2_metasprite_3        spritesheet_2
     00205AE0  _spritesheet_2_metasprite_4        spritesheet_2
     00205B04  _spritesheet_2_metasprite_5        spritesheet_2
     00205B28  _spritesheet_2_metasprite_6        spritesheet_2
     00205B4C  _spritesheet_2_metasprite_7        spritesheet_2
     00205B70  _spritesheet_2_metasprite_8        spritesheet_2
     00205B74  _spritesheet_2_metasprite_9        spritesheet_2
     00205B98  _spritesheet_2_metasprite_10       spritesheet_2
     00205BBC  _spritesheet_2_metasprite_11       spritesheet_2
     00205BE0  _spritesheet_2_metasprite_12       spritesheet_2
     00205C04  _spritesheet_2_metasprite_13       spritesheet_2
     00205C28  _spritesheet_2_metasprite_14       spritesheet_2
     00205C4C  _spritesheet_2_metasprites         spritesheet_2
     00205C6A  _spritesheet_2_animations          spritesheet_2
     00205C7A  _spritesheet_2_animations_lookup   spritesheet_2
     00205C7C  _spritesheet_2                     spritesheet_2
     00205C8D  ___func_tilemap_15                 tilemap_15
     00205C8D  _tilemap_15                        tilemap_15
     0020654D  ___func_tilemap_17                 tilemap_17
     0020654D  _tilemap_17                        tilemap_17
     00206E0D  ___func_tilemap_89                 tilemap_89
     00206E0D  _tilemap_89                        tilemap_89
     002076CD  ___func_tileset_39                 tileset_39
     002076CD  _tileset_39                        tileset_39
ASxxxx Linker V03.00 + NoICE + sdld,  page 108.
Hexadecimal  [32-Bits]

Area                                    Addr        Size        Decimal Bytes (Attributes)
--------------------------------        ----        ----        ------- ----- ------------
_CODE_38                            00264000    00003FFF =       16383. bytes (REL,CON)

      Value  Global                              Global Defined In Module
      -----  --------------------------------   ------------------------
     00264000  ___func_scene_100_collisions       scene_100_collisions
     00264000  _scene_100_collisions              scene_100_collisions
     002645A0  ___func_scene_102_collisions       scene_102_collisions
     002645A0  _scene_102_collisions              scene_102_collisions
     00264B40  ___func_scene_42_collisions        scene_42_collisions
     00264B40  _scene_42_collisions               scene_42_collisions
     002650E0  ___func_scene_43_collisions        scene_43_collisions
     002650E0  _scene_43_collisions               scene_43_collisions
     00265680  ___func_scene_6_collisions         scene_6_collisions
     00265680  _scene_6_collisions                scene_6_collisions
     00265C20  ___func_scene_82_collisions        scene_82_collisions
     00265C20  _scene_82_collisions               scene_82_collisions
     002661C0  _script_input_13                   
     002662F9  ___func_tilemap_115                tilemap_115
     002662F9  _tilemap_115                       tilemap_115
     002668F9  ___func_tilemap_116                tilemap_116
     002668F9  _tilemap_116                       tilemap_116
     00266E99  ___func_tileset_25                 tileset_25
     00266E99  _tileset_25                        tileset_25
     0026745B  ___func_tileset_67                 tileset_67
     0026745B  _tileset_67                        tileset_67
     00267A1D  ___func_tileset_94                 tileset_94
     00267A1D  _tileset_94                        tileset_94

ASxxxx Linker V03.00 + NoICE + sdld,  page 109.
Hexadecimal  [32-Bits]

Area                                    Addr        Size        Decimal Bytes (Attributes)
--------------------------------        ----        ----        ------- ----- ------------
_CODE_47                            002F4000    00004000 =       16384. bytes (REL,CON)

      Value  Global                              Global Defined In Module
      -----  --------------------------------   ------------------------
     002F4000  ___func_scene_101_actors           scene_101_actors
     002F4000  _scene_101_actors                  scene_101_actors
     002F4038  ___func_scene_102                  scene_102
     002F4038  _scene_102                         scene_102
     002F4072  ___func_scene_103                  scene_103
     002F4072  _scene_103                         scene_103
     002F40AC  ___func_scene_104_actors           scene_104_actors
     002F40AC  _scene_104_actors                  scene_104_actors
     002F40E4  ___func_scene_104                  scene_104
     002F40E4  _scene_104                         scene_104
     002F411E  ___func_scene_105                  scene_105
     002F411E  _scene_105                         scene_105
     002F4158  ___func_scene_106                  scene_106
     002F4158  _scene_106                         scene_106
     002F4192  ___func_scene_107                  scene_107
     002F4192  _scene_107                         scene_107
     002F41CC  ___func_scene_108                  scene_108
     002F41CC  _scene_108                         scene_108
     002F4206  ___func_scene_109                  scene_109
     002F4206  _scene_109                         scene_109
     002F4240  ___func_scene_11                   scene_11
     002F4240  _scene_11                          scene_11
     002F427A  ___func_scene_110_actors           scene_110_actors
     002F427A  _scene_110_actors                  scene_110_actors
     002F42B2  ___func_scene_110                  scene_110
     002F42B2  _scene_110                         scene_110
     002F42EC  ___func_scene_111                  scene_111
     002F42EC  _scene_111                         scene_111
     002F4326  ___func_scene_112                  scene_112
     002F4326  _scene_112                         scene_112
     002F4360  ___func_scene_113                  scene_113
     002F4360  _scene_113                         scene_113
     002F439A  ___func_scene_114                  scene_114
     002F439A  _scene_114                         scene_114
     002F43D4  ___func_scene_115_actors           scene_115_actors
     002F43D4  _scene_115_actors                  scene_115_actors
     002F440C  ___func_scene_115                  scene_115
     002F440C  _scene_115                         scene_115
     002F4446  ___func_scene_116_actors           scene_116_actors
     002F4446  _scene_116_actors                  scene_116_actors
     002F447E  ___func_scene_116                  scene_116
     002F447E  _scene_116                         scene_116
     002F44B8  ___func_scene_117                  scene_117
     002F44B8  _scene_117                         scene_117
     002F44F2  ___func_scene_118                  scene_118
     002F44F2  _scene_118                         scene_118
     002F452C  ___func_scene_119                  scene_119
     002F452C  _scene_119                         scene_119
     002F4566  ___func_scene_12_actors            scene_12_actors
     002F4566  _scene_12_actors                   scene_12_actors
ASxxxx Linker V03.00 + NoICE + sdld,  page 110.
Hexadecimal  [32-Bits]

Area                                    Addr        Size        Decimal Bytes (Attributes)
--------------------------------        ----        ----        ------- ----- ------------
_CODE_47                            002F4000    00004000 =       16384. bytes (REL,CON)

      Value  Global                              Global Defined In Module
      -----  --------------------------------   ------------------------
     002F459E  ___func_scene_12                   scene_12
     002F459E  _scene_12                          scene_12
     002F45D8  ___func_scene_120_actors           scene_120_actors
     002F45D8  _scene_120_actors                  scene_120_actors
     002F4610  ___func_scene_120                  scene_120
     002F4610  _scene_120                         scene_120
     002F464A  ___func_scene_121                  scene_121
     002F464A  _scene_121                         scene_121
     002F4684  ___func_scene_122                  scene_122
     002F4684  _scene_122                         scene_122
     002F46BE  ___func_scene_123                  scene_123
     002F46BE  _scene_123                         scene_123
     002F46F8  ___func_scene_124                  scene_124
     002F46F8  _scene_124                         scene_124
     002F4732  ___func_scene_125                  scene_125
     002F4732  _scene_125                         scene_125
     002F476C  ___func_scene_126                  scene_126
     002F476C  _scene_126                         scene_126
     002F47A6  ___func_scene_127                  scene_127
     002F47A6  _scene_127                         scene_127
     002F47E0  ___func_scene_128                  scene_128
     002F47E0  _scene_128                         scene_128
     002F481A  ___func_scene_129                  scene_129
     002F481A  _scene_129                         scene_129
     002F4854  ___func_scene_13_actors            scene_13_actors
     002F4854  _scene_13_actors                   scene_13_actors
     002F488C  ___func_scene_13                   scene_13
     002F488C  _scene_13                          scene_13
     002F48C6  ___func_scene_130_actors           scene_130_actors
     002F48C6  _scene_130_actors                  scene_130_actors
     002F48FE  ___func_scene_130                  scene_130
     002F48FE  _scene_130                         scene_130
     002F4938  ___func_scene_131                  scene_131
     002F4938  _scene_131                         scene_131
     002F4972  ___func_scene_132                  scene_132
     002F4972  _scene_132                         scene_132
     002F49AC  ___func_scene_133                  scene_133
     002F49AC  _scene_133                         scene_133
     002F49E6  ___func_scene_134                  scene_134
     002F49E6  _scene_134                         scene_134
     002F4A20  ___func_scene_135                  scene_135
     002F4A20  _scene_135                         scene_135
     002F4A5A  ___func_scene_136                  scene_136
     002F4A5A  _scene_136                         scene_136
     002F4A94  ___func_scene_137                  scene_137
     002F4A94  _scene_137                         scene_137
     002F4ACE  ___func_scene_138                  scene_138
     002F4ACE  _scene_138                         scene_138
     002F4B08  ___func_scene_139                  scene_139
     002F4B08  _scene_139                         scene_139
     002F4B42  ___func_scene_14                   scene_14
ASxxxx Linker V03.00 + NoICE + sdld,  page 111.
Hexadecimal  [32-Bits]

Area                                    Addr        Size        Decimal Bytes (Attributes)
--------------------------------        ----        ----        ------- ----- ------------
_CODE_47                            002F4000    00004000 =       16384. bytes (REL,CON)

      Value  Global                              Global Defined In Module
      -----  --------------------------------   ------------------------
     002F4B42  _scene_14                          scene_14
     002F4B7C  ___func_scene_140                  scene_140
     002F4B7C  _scene_140                         scene_140
     002F4BB6  ___func_scene_141                  scene_141
     002F4BB6  _scene_141                         scene_141
     002F4BF0  ___func_scene_142                  scene_142
     002F4BF0  _scene_142                         scene_142
     002F4C2A  ___func_scene_143                  scene_143
     002F4C2A  _scene_143                         scene_143
     002F4C64  ___func_scene_144                  scene_144
     002F4C64  _scene_144                         scene_144
     002F4C9E  ___func_scene_145                  scene_145
     002F4C9E  _scene_145                         scene_145
     002F4CD8  ___func_scene_15                   scene_15
     002F4CD8  _scene_15                          scene_15
     002F4D12  ___func_scene_16                   scene_16
     002F4D12  _scene_16                          scene_16
     002F4D4C  ___func_scene_17                   scene_17
     002F4D4C  _scene_17                          scene_17
     002F4D86  ___func_scene_18_actors            scene_18_actors
     002F4D86  _scene_18_actors                   scene_18_actors
     002F4DBE  ___func_scene_18                   scene_18
     002F4DBE  _scene_18                          scene_18
     002F4DF8  ___func_scene_19                   scene_19
     002F4DF8  _scene_19                          scene_19
     002F4E32  ___func_scene_2                    scene_2
     002F4E32  _scene_2                           scene_2
     002F4E6C  ___func_scene_20                   scene_20
     002F4E6C  _scene_20                          scene_20
     002F4EA6  ___func_scene_21_actors            scene_21_actors
     002F4EA6  _scene_21_actors                   scene_21_actors
     002F4EDE  ___func_scene_21                   scene_21
     002F4EDE  _scene_21                          scene_21
     002F4F18  ___func_scene_22                   scene_22
     002F4F18  _scene_22                          scene_22
     002F4F52  ___func_scene_23                   scene_23
     002F4F52  _scene_23                          scene_23
     002F4F8C  ___func_scene_24                   scene_24
     002F4F8C  _scene_24                          scene_24
     002F4FC6  ___func_scene_25                   scene_25
     002F4FC6  _scene_25                          scene_25
     002F5000  ___func_scene_26                   scene_26
     002F5000  _scene_26                          scene_26
     002F503A  ___func_scene_27                   scene_27
     002F503A  _scene_27                          scene_27
     002F5074  ___func_scene_28                   scene_28
     002F5074  _scene_28                          scene_28
     002F50AE  ___func_scene_29                   scene_29
     002F50AE  _scene_29                          scene_29
     002F50E8  ___func_scene_3                    scene_3
     002F50E8  _scene_3                           scene_3
ASxxxx Linker V03.00 + NoICE + sdld,  page 112.
Hexadecimal  [32-Bits]

Area                                    Addr        Size        Decimal Bytes (Attributes)
--------------------------------        ----        ----        ------- ----- ------------
_CODE_47                            002F4000    00004000 =       16384. bytes (REL,CON)

      Value  Global                              Global Defined In Module
      -----  --------------------------------   ------------------------
     002F5122  ___func_scene_30                   scene_30
     002F5122  _scene_30                          scene_30
     002F515C  ___func_scene_31                   scene_31
     002F515C  _scene_31                          scene_31
     002F5196  ___func_scene_32                   scene_32
     002F5196  _scene_32                          scene_32
     002F51D0  ___func_scene_33                   scene_33
     002F51D0  _scene_33                          scene_33
     002F520A  ___func_scene_34                   scene_34
     002F520A  _scene_34                          scene_34
     002F5244  ___func_scene_35                   scene_35
     002F5244  _scene_35                          scene_35
     002F527E  ___func_scene_36                   scene_36
     002F527E  _scene_36                          scene_36
     002F52B8  ___func_scene_37                   scene_37
     002F52B8  _scene_37                          scene_37
     002F52F2  ___func_scene_38                   scene_38
     002F52F2  _scene_38                          scene_38
     002F532C  ___func_scene_39                   scene_39
     002F532C  _scene_39                          scene_39
     002F5366  ___func_scene_4_actors             scene_4_actors
     002F5366  _scene_4_actors                    scene_4_actors
     002F539E  ___func_scene_4                    scene_4
     002F539E  _scene_4                           scene_4
     002F53D8  ___func_scene_40                   scene_40
     002F53D8  _scene_40                          scene_40
     002F5412  ___func_scene_41                   scene_41
     002F5412  _scene_41                          scene_41
     002F544C  ___func_scene_42                   scene_42
     002F544C  _scene_42                          scene_42
     002F5486  ___func_scene_43                   scene_43
     002F5486  _scene_43                          scene_43
     002F54C0  ___func_scene_44                   scene_44
     002F54C0  _scene_44                          scene_44
     002F54FA  ___func_scene_45                   scene_45
     002F54FA  _scene_45                          scene_45
     002F5534  ___func_scene_46                   scene_46
     002F5534  _scene_46                          scene_46
     002F556E  ___func_scene_47                   scene_47
     002F556E  _scene_47                          scene_47
     002F55A8  ___func_scene_48                   scene_48
     002F55A8  _scene_48                          scene_48
     002F55E2  ___func_scene_49                   scene_49
     002F55E2  _scene_49                          scene_49
     002F561C  ___func_scene_5_actors             scene_5_actors
     002F561C  _scene_5_actors                    scene_5_actors
     002F5654  ___func_scene_5                    scene_5
     002F5654  _scene_5                           scene_5
     002F568E  ___func_scene_50                   scene_50
     002F568E  _scene_50                          scene_50
     002F56C8  ___func_scene_51                   scene_51
ASxxxx Linker V03.00 + NoICE + sdld,  page 113.
Hexadecimal  [32-Bits]

Area                                    Addr        Size        Decimal Bytes (Attributes)
--------------------------------        ----        ----        ------- ----- ------------
_CODE_47                            002F4000    00004000 =       16384. bytes (REL,CON)

      Value  Global                              Global Defined In Module
      -----  --------------------------------   ------------------------
     002F56C8  _scene_51                          scene_51
     002F5702  ___func_scene_52                   scene_52
     002F5702  _scene_52                          scene_52
     002F573C  ___func_scene_53                   scene_53
     002F573C  _scene_53                          scene_53
     002F5776  ___func_scene_54                   scene_54
     002F5776  _scene_54                          scene_54
     002F57B0  ___func_scene_55                   scene_55
     002F57B0  _scene_55                          scene_55
     002F57EA  ___func_scene_56                   scene_56
     002F57EA  _scene_56                          scene_56
     002F5824  ___func_scene_57                   scene_57
     002F5824  _scene_57                          scene_57
     002F585E  ___func_scene_58                   scene_58
     002F585E  _scene_58                          scene_58
     002F5898  ___func_scene_59                   scene_59
     002F5898  _scene_59                          scene_59
     002F58D2  ___func_scene_6_actors             scene_6_actors
     002F58D2  _scene_6_actors                    scene_6_actors
     002F590A  ___func_scene_6                    scene_6
     002F590A  _scene_6                           scene_6
     002F5944  ___func_scene_60                   scene_60
     002F5944  _scene_60                          scene_60
     002F597E  ___func_scene_61                   scene_61
     002F597E  _scene_61                          scene_61
     002F59B8  ___func_scene_62                   scene_62
     002F59B8  _scene_62                          scene_62
     002F59F2  ___func_scene_63                   scene_63
     002F59F2  _scene_63                          scene_63
     002F5A2C  ___func_scene_64                   scene_64
     002F5A2C  _scene_64                          scene_64
     002F5A66  ___func_scene_65                   scene_65
     002F5A66  _scene_65                          scene_65
     002F5AA0  ___func_scene_66                   scene_66
     002F5AA0  _scene_66                          scene_66
     002F5ADA  ___func_scene_67                   scene_67
     002F5ADA  _scene_67                          scene_67
     002F5B14  ___func_scene_68                   scene_68
     002F5B14  _scene_68                          scene_68
     002F5B4E  ___func_scene_69                   scene_69
     002F5B4E  _scene_69                          scene_69
     002F5B88  ___func_scene_7                    scene_7
     002F5B88  _scene_7                           scene_7
     002F5BC2  ___func_scene_70                   scene_70
     002F5BC2  _scene_70                          scene_70
     002F5BFC  ___func_scene_71                   scene_71
     002F5BFC  _scene_71                          scene_71
     002F5C36  ___func_scene_72                   scene_72
     002F5C36  _scene_72                          scene_72
     002F5C70  ___func_scene_73                   scene_73
     002F5C70  _scene_73                          scene_73
ASxxxx Linker V03.00 + NoICE + sdld,  page 114.
Hexadecimal  [32-Bits]

Area                                    Addr        Size        Decimal Bytes (Attributes)
--------------------------------        ----        ----        ------- ----- ------------
_CODE_47                            002F4000    00004000 =       16384. bytes (REL,CON)

      Value  Global                              Global Defined In Module
      -----  --------------------------------   ------------------------
     002F5CAA  ___func_scene_74                   scene_74
     002F5CAA  _scene_74                          scene_74
     002F5CE4  ___func_scene_75                   scene_75
     002F5CE4  _scene_75                          scene_75
     002F5D1E  ___func_scene_76                   scene_76
     002F5D1E  _scene_76                          scene_76
     002F5D58  ___func_scene_77                   scene_77
     002F5D58  _scene_77                          scene_77
     002F5D92  ___func_scene_78                   scene_78
     002F5D92  _scene_78                          scene_78
     002F5DCC  ___func_scene_79                   scene_79
     002F5DCC  _scene_79                          scene_79
     002F5E06  ___func_scene_8_actors             scene_8_actors
     002F5E06  _scene_8_actors                    scene_8_actors
     002F5E3E  ___func_scene_8                    scene_8
     002F5E3E  _scene_8                           scene_8
     002F5E78  ___func_scene_80                   scene_80
     002F5E78  _scene_80                          scene_80
     002F5EB2  ___func_scene_81                   scene_81
     002F5EB2  _scene_81                          scene_81
     002F5EEC  ___func_scene_82                   scene_82
     002F5EEC  _scene_82                          scene_82
     002F5F26  ___func_scene_83                   scene_83
     002F5F26  _scene_83                          scene_83
     002F5F60  ___func_scene_84                   scene_84
     002F5F60  _scene_84                          scene_84
     002F5F9A  ___func_scene_85_triggers          scene_85_triggers
     002F5F9A  _scene_85_triggers                 scene_85_triggers
     002F5FC2  ___func_scene_85                   scene_85
     002F5FC2  _scene_85                          scene_85
     002F5FFC  ___func_scene_86                   scene_86
     002F5FFC  _scene_86                          scene_86
     002F6036  ___func_scene_87                   scene_87
     002F6036  _scene_87                          scene_87
     002F6070  ___func_scene_88                   scene_88
     002F6070  _scene_88                          scene_88
     002F60AA  ___func_scene_89                   scene_89
     002F60AA  _scene_89                          scene_89
     002F60E4  ___func_scene_9                    scene_9
     002F60E4  _scene_9                           scene_9
     002F611E  ___func_scene_90_actors            scene_90_actors
     002F611E  _scene_90_actors                   scene_90_actors
     002F6156  ___func_scene_90                   scene_90
     002F6156  _scene_90                          scene_90
     002F6190  ___func_scene_91_actors            scene_91_actors
     002F6190  _scene_91_actors                   scene_91_actors
     002F61C8  ___func_scene_91                   scene_91
     002F61C8  _scene_91                          scene_91
     002F6202  ___func_scene_92                   scene_92
     002F6202  _scene_92                          scene_92
     002F623C  ___func_scene_93                   scene_93
ASxxxx Linker V03.00 + NoICE + sdld,  page 115.
Hexadecimal  [32-Bits]

Area                                    Addr        Size        Decimal Bytes (Attributes)
--------------------------------        ----        ----        ------- ----- ------------
_CODE_47                            002F4000    00004000 =       16384. bytes (REL,CON)

      Value  Global                              Global Defined In Module
      -----  --------------------------------   ------------------------
     002F623C  _scene_93                          scene_93
     002F6276  ___func_scene_94                   scene_94
     002F6276  _scene_94                          scene_94
     002F62B0  ___func_scene_95                   scene_95
     002F62B0  _scene_95                          scene_95
     002F62EA  ___func_scene_96                   scene_96
     002F62EA  _scene_96                          scene_96
     002F6324  ___func_scene_97                   scene_97
     002F6324  _scene_97                          scene_97
     002F635E  ___func_scene_98                   scene_98
     002F635E  _scene_98                          scene_98
     002F6398  ___func_scene_99_actors            scene_99_actors
     002F6398  _scene_99_actors                   scene_99_actors
     002F63D0  ___func_scene_99                   scene_99
     002F63D0  _scene_99                          scene_99
     002F640A  _script_input_2                    
     002F642E  _script_s103t1_interact            
     002F645A  _script_s104t1_interact            
     002F6486  _script_s104t2_interact            
     002F64B2  _script_s108t0_interact            
     002F64DE  _script_s108t1_interact            
     002F650A  _script_s109t0_interact            
     002F6536  _script_s109t1_interact            
     002F6562  _script_s10t0_interact             
     002F658E  _script_s10t1_interact             
     002F65BA  _script_s111t0_interact            
     002F65E6  _script_s118t0_interact            
     002F6612  _script_s11t0_interact             
     002F663E  _script_s11t1_interact             
     002F666A  _script_s11t2_interact             
     002F6696  _script_s12t0_interact             
     002F66C2  _script_s12t1_interact             
     002F66EE  _script_s13t0_interact             
     002F671A  _script_s13t1_interact             
     002F6746  _script_s14t0_interact             
     002F6772  _script_s14t1_interact             
     002F679E  _script_s15t0_interact             
     002F67CA  _script_s15t1_interact             
     002F67F6  _script_s16t0_interact             
     002F6822  _script_s16t1_interact             
     002F684E  _script_s17t0_interact             
     002F687A  _script_s17t1_interact             
     002F68A6  _script_s17t2_interact             
     002F68D2  _script_s17t3_interact             
     002F68FE  _script_s17t4_interact             
     002F692A  _script_s18t0_interact             
     002F6956  _script_s18t1_interact             
     002F6982  _script_s19t0_interact             
     002F69AE  _script_s19t1_interact             
     002F69DA  _script_s20t0_interact             
     002F6A06  _script_s20t1_interact             
ASxxxx Linker V03.00 + NoICE + sdld,  page 116.
Hexadecimal  [32-Bits]

Area                                    Addr        Size        Decimal Bytes (Attributes)
--------------------------------        ----        ----        ------- ----- ------------
_CODE_47                            002F4000    00004000 =       16384. bytes (REL,CON)

      Value  Global                              Global Defined In Module
      -----  --------------------------------   ------------------------
     002F6A32  _script_s21t0_interact             
     002F6A5E  _script_s21t1_interact             
     002F6A8A  _script_s21t2_interact             
     002F6AB6  _script_s23t0_interact             
     002F6AE2  _script_s23t1_interact             
     002F6B0E  _script_s23t2_interact             
     002F6B3A  _script_s23t3_interact             
     002F6B66  _script_s23t4_interact             
     002F6B92  _script_s23t5_interact             
     002F6BBE  _script_s23t6_interact             
     002F6BEA  _script_s23t7_interact             
     002F6C16  _script_s23t8_interact             
     002F6C42  _script_s24t0_interact             
     002F6C6E  _script_s25t0_interact             
     002F6C9A  _script_s25t1_interact             
     002F6CC6  _script_s26t0_interact             
     002F6CF2  _script_s26t1_interact             
     002F6D1E  _script_s27t0_interact             
     002F6D4A  _script_s27t1_interact             
     002F6D76  _script_s28t0_interact             
     002F6DA2  _script_s29t0_interact             
     002F6DCE  _script_s29t1_interact             
     002F6DFA  _script_s30t0_interact             
     002F6E26  _script_s31t0_interact             
     002F6E52  _script_s31t1_interact             
     002F6E7E  _script_s32t0_interact             
     002F6EAA  _script_s32t1_interact             
     002F6ED6  _script_s32t2_interact             
     002F6F02  _script_s33t0_interact             
     002F6F2E  _script_s33t1_interact             
     002F6F5A  _script_s34t0_interact             
     002F6F86  _script_s34t1_interact             
     002F6FB2  _script_s35t0_interact             
     002F6FDE  _script_s36t0_interact             
     002F700A  _script_s36t1_interact             
     002F7036  _script_s37t0_interact             
     002F7062  _script_s38t0_interact             
     002F708E  _script_s39t0_interact             
     002F70BA  _script_s40t0_interact             
     002F70E6  _script_s40t1_interact             
     002F7112  _script_s41t0_interact             
     002F713E  _script_s42t0_interact             
     002F716A  _script_s42t1_interact             
     002F7196  _script_s42t2_interact             
     002F71CE  _script_s4t0_interact              
     002F71FA  _script_s5t0_interact              
     002F7226  _script_s63t0_interact             
     002F7252  _script_s64t0_interact             
     002F727E  _script_s64t1_interact             
     002F72AA  _script_s65t0_interact             
     002F72D6  _script_s65t1_interact             
ASxxxx Linker V03.00 + NoICE + sdld,  page 117.
Hexadecimal  [32-Bits]

Area                                    Addr        Size        Decimal Bytes (Attributes)
--------------------------------        ----        ----        ------- ----- ------------
_CODE_47                            002F4000    00004000 =       16384. bytes (REL,CON)

      Value  Global                              Global Defined In Module
      -----  --------------------------------   ------------------------
     002F7302  _script_s66t0_interact             
     002F732E  _script_s66t1_interact             
     002F735A  _script_s66t2_interact             
     002F7386  _script_s67t0_interact             
     002F73B2  _script_s67t1_interact             
     002F73DE  _script_s68t0_interact             
     002F740A  _script_s68t1_interact             
     002F7436  _script_s68t2_interact             
     002F7462  _script_s69t0_interact             
     002F748E  _script_s69t1_interact             
     002F74BA  _script_s6t0_interact              
     002F74E6  _script_s6t1_interact              
     002F7512  _script_s6t2_interact              
     002F753E  _script_s6t3_interact              
     002F756A  _script_s70t0_interact             
     002F7596  _script_s70t1_interact             
     002F75C2  _script_s70t2_interact             
     002F75EE  _script_s70t3_interact             
     002F761A  _script_s70t4_interact             
     002F7646  _script_s70t5_interact             
     002F7672  _script_s71t0_interact             
     002F769E  _script_s71t1_interact             
     002F76CA  _script_s71t2_interact             
     002F76F6  _script_s71t3_interact             
     002F7722  _script_s72t0_interact             
     002F774E  _script_s72t1_interact             
     002F777A  _script_s73t0_interact             
     002F77A6  _script_s73t1_interact             
     002F77D2  _script_s74t0_interact             
     002F77FE  _script_s74t1_interact             
     002F782A  _script_s75t0_interact             
     002F7856  _script_s75t1_interact             
     002F7882  _script_s76t0_interact             
     002F78AE  _script_s76t1_interact             
     002F78DA  _script_s78t0_interact             
     002F7906  _script_s78t1_interact             
     002F7932  _script_s79t0_interact             
     002F795E  _script_s7t0_interact              
     002F798A  _script_s7t1_interact              
     002F79B6  _script_s7t2_interact              
     002F79E2  _script_s80t0_interact             
     002F7A0E  _script_s80t1_interact             
     002F7A3A  _script_s81t0_interact             
     002F7A66  _script_s82t0_interact             
     002F7A92  _script_s82t1_interact             
     002F7ABE  _script_s83t0_interact             
     002F7AEA  _script_s83t1_interact             
     002F7B16  _script_s84t0_interact             
     002F7B42  _script_s84t1_interact             
     002F7B6E  _script_s84t2_interact             
     002F7B9A  _script_s84t3_interact             
ASxxxx Linker V03.00 + NoICE + sdld,  page 118.
Hexadecimal  [32-Bits]

Area                                    Addr        Size        Decimal Bytes (Attributes)
--------------------------------        ----        ----        ------- ----- ------------
_CODE_47                            002F4000    00004000 =       16384. bytes (REL,CON)

      Value  Global                              Global Defined In Module
      -----  --------------------------------   ------------------------
     002F7BC6  _script_s85t0_interact             
     002F7BF2  _script_s85t1_interact             
     002F7C1E  _script_s85t2_interact             
     002F7C4A  _script_s85t3_interact             
     002F7C76  _script_s85t4_interact             
     002F7CA2  _script_s86t0_interact             
     002F7CCE  _script_s87t0_interact             
     002F7CFA  _script_s87t1_interact             
     002F7D26  _script_s88t0_interact             
     002F7D52  _script_s88t1_interact             
     002F7D7E  _script_s88t2_interact             
     002F7DAA  _script_s89t0_interact             
     002F7DD6  _script_s89t1_interact             
     002F7E02  _script_s89t2_interact             
     002F7E2E  _script_s89t3_interact             
     002F7E5A  _script_s89t4_interact             
     002F7E86  _script_s8t0_interact              
     002F7EB2  _script_s8t1_interact              
     002F7EDE  _script_s9t0_interact              
     002F7F0A  _script_s9t1_interact              
     002F7F36  ___func_spritesheet_0              spritesheet_0
     002F7F36  _spritesheet_0_metasprite_0        spritesheet_0
     002F7F3A  _spritesheet_0_metasprite_1        spritesheet_0
     002F7F46  _spritesheet_0_metasprites         spritesheet_0
     002F7F4A  _spritesheet_0_animations          spritesheet_0
     002F7F5A  _spritesheet_0_animations_lookup   spritesheet_0
     002F7F5C  _spritesheet_0                     spritesheet_0
     002F7F6D  ___func_spritesheet_13             spritesheet_13
     002F7F6D  _spritesheet_13_metasprite_0       spritesheet_13
     002F7F79  _spritesheet_13_metasprites        spritesheet_13
     002F7F7B  _spritesheet_13_animations         spritesheet_13
     002F7F8B  _spritesheet_13_animations_looku   spritesheet_13
     002F7F8D  _spritesheet_13                    spritesheet_13
     002F7F9E  ___func_spritesheet_26             spritesheet_26
     002F7F9E  _spritesheet_26_metasprite_0       spritesheet_26
     002F7FAA  _spritesheet_26_metasprites        spritesheet_26
     002F7FAC  _spritesheet_26_animations         spritesheet_26
     002F7FBC  _spritesheet_26_animations_looku   spritesheet_26
     002F7FBE  _spritesheet_26                    spritesheet_26
     002F7FCF  ___func_spritesheet_3              spritesheet_3
     002F7FCF  _spritesheet_3_metasprite_0        spritesheet_3
     002F7FDB  _spritesheet_3_metasprites         spritesheet_3
     002F7FDD  _spritesheet_3_animations          spritesheet_3
     002F7FED  _spritesheet_3_animations_lookup   spritesheet_3
     002F7FEF  _spritesheet_3                     spritesheet_3

ASxxxx Linker V03.00 + NoICE + sdld,  page 119.
Hexadecimal  [32-Bits]

Area                                    Addr        Size        Decimal Bytes (Attributes)
--------------------------------        ----        ----        ------- ----- ------------
_CODE_43                            002B4000    00004000 =       16384. bytes (REL,CON)

      Value  Global                              Global Defined In Module
      -----  --------------------------------   ------------------------
     002B4000  ___func_scene_101_collisions       scene_101_collisions
     002B4000  _scene_101_collisions              scene_101_collisions
     002B4280  ___func_scene_112_collisions       scene_112_collisions
     002B4280  _scene_112_collisions              scene_112_collisions
     002B4500  ___func_scene_115_collisions       scene_115_collisions
     002B4500  _scene_115_collisions              scene_115_collisions
     002B4780  ___func_scene_117_collisions       scene_117_collisions
     002B4780  _scene_117_collisions              scene_117_collisions
     002B4A00  ___func_scene_120_collisions       scene_120_collisions
     002B4A00  _scene_120_collisions              scene_120_collisions
     002B4C80  ___func_scene_121_collisions       scene_121_collisions
     002B4C80  _scene_121_collisions              scene_121_collisions
     002B4F00  ___func_scene_123_collisions       scene_123_collisions
     002B4F00  _scene_123_collisions              scene_123_collisions
     002B5180  ___func_scene_24_collisions        scene_24_collisions
     002B5180  _scene_24_collisions               scene_24_collisions
     002B5378  ___func_scene_26_collisions        scene_26_collisions
     002B5378  _scene_26_collisions               scene_26_collisions
     002B5570  ___func_scene_29_collisions        scene_29_collisions
     002B5570  _scene_29_collisions               scene_29_collisions
     002B5810  _script_s101_init                  
     002B5A33  _script_s103t0_interact            
     002B5A5F  ___func_spritesheet_8              spritesheet_8
     002B5A5F  _spritesheet_8_metasprite_0        spritesheet_8
     002B5A83  _spritesheet_8_metasprite_1        spritesheet_8
     002B5AA7  _spritesheet_8_metasprite_2        spritesheet_8
     002B5ACB  _spritesheet_8_metasprite_3        spritesheet_8
     002B5AEF  _spritesheet_8_metasprite_4        spritesheet_8
     002B5B13  _spritesheet_8_metasprite_5        spritesheet_8
     002B5B37  _spritesheet_8_metasprite_6        spritesheet_8
     002B5B5B  _spritesheet_8_metasprite_7        spritesheet_8
     002B5B7F  _spritesheet_8_metasprite_8        spritesheet_8
     002B5B83  _spritesheet_8_metasprite_9        spritesheet_8
     002B5BA7  _spritesheet_8_metasprite_10       spritesheet_8
     002B5BCB  _spritesheet_8_metasprite_11       spritesheet_8
     002B5BEF  _spritesheet_8_metasprite_12       spritesheet_8
     002B5C13  _spritesheet_8_metasprite_13       spritesheet_8
     002B5C37  _spritesheet_8_metasprite_14       spritesheet_8
     002B5C5B  _spritesheet_8_metasprites         spritesheet_8
     002B5C79  _spritesheet_8_animations          spritesheet_8
     002B5C89  _spritesheet_8_animations_lookup   spritesheet_8
     002B5C8B  _spritesheet_8                     spritesheet_8
     002B5C9C  ___func_tilemap_100                tilemap_100
     002B5C9C  _tilemap_100                       tilemap_100
     002B5F1C  ___func_tilemap_101                tilemap_101
     002B5F1C  _tilemap_101                       tilemap_101
     002B619C  ___func_tilemap_102                tilemap_102
     002B619C  _tilemap_102                       tilemap_102
     002B641C  ___func_tilemap_73                 tilemap_73
     002B641C  _tilemap_73                        tilemap_73
ASxxxx Linker V03.00 + NoICE + sdld,  page 120.
Hexadecimal  [32-Bits]

Area                                    Addr        Size        Decimal Bytes (Attributes)
--------------------------------        ----        ----        ------- ----- ------------
_CODE_43                            002B4000    00004000 =       16384. bytes (REL,CON)

      Value  Global                              Global Defined In Module
      -----  --------------------------------   ------------------------
     002B6614  ___func_tilemap_80                 tilemap_80
     002B6614  _tilemap_80                        tilemap_80
     002B68B4  ___func_tilemap_92                 tilemap_92
     002B68B4  _tilemap_92                        tilemap_92
     002B6B34  ___func_tilemap_94                 tilemap_94
     002B6B34  _tilemap_94                        tilemap_94
     002B6DB4  ___func_tilemap_97                 tilemap_97
     002B6DB4  _tilemap_97                        tilemap_97
     002B7034  ___func_tilemap_99                 tilemap_99
     002B7034  _tilemap_99                        tilemap_99
     002B72B4  ___func_tileset_24                 tileset_24
     002B72B4  _tileset_24                        tileset_24
     002B7536  ___func_tileset_71                 tileset_71
     002B7536  _tileset_71                        tileset_71
     002B7738  ___func_tileset_73                 tileset_73
     002B7738  _tileset_73                        tileset_73
     002B793A  ___func_tileset_83                 tileset_83
     002B793A  _tileset_83                        tileset_83
     002B7B3C  ___func_tileset_88                 tileset_88
     002B7B3C  _tileset_88                        tileset_88
     002B7DDE  ___func_tileset_91                 tileset_91
     002B7DDE  _tileset_91                        tileset_91
ASxxxx Linker V03.00 + NoICE + sdld,  page 121.
Hexadecimal  [32-Bits]

Area                                    Addr        Size        Decimal Bytes (Attributes)
--------------------------------        ----        ----        ------- ----- ------------
_CODE_40                            00284000    00003FFF =       16383. bytes (REL,CON)

      Value  Global                              Global Defined In Module
      -----  --------------------------------   ------------------------
     00284000  ___func_scene_102_triggers         scene_102_triggers
     00284000  _scene_102_triggers                scene_102_triggers
     00284010  ___func_scene_35_collisions        scene_35_collisions
     00284010  _scene_35_collisions               scene_35_collisions
     00284490  ___func_scene_36_collisions        scene_36_collisions
     00284490  _scene_36_collisions               scene_36_collisions
     00284910  ___func_scene_38_collisions        scene_38_collisions
     00284910  _scene_38_collisions               scene_38_collisions
     00284D90  ___func_scene_74_collisions        scene_74_collisions
     00284D90  _scene_74_collisions               scene_74_collisions
     00285240  ___func_spritesheet_6              spritesheet_6
     00285240  _spritesheet_6_metasprite_0        spritesheet_6
     00285264  _spritesheet_6_metasprite_1        spritesheet_6
     00285288  _spritesheet_6_metasprite_2        spritesheet_6
     002852AC  _spritesheet_6_metasprite_3        spritesheet_6
     002852D0  _spritesheet_6_metasprite_4        spritesheet_6
     002852F4  _spritesheet_6_metasprite_5        spritesheet_6
     00285318  _spritesheet_6_metasprite_6        spritesheet_6
     0028533C  _spritesheet_6_metasprite_7        spritesheet_6
     00285360  _spritesheet_6_metasprite_8        spritesheet_6
     00285364  _spritesheet_6_metasprite_9        spritesheet_6
     00285388  _spritesheet_6_metasprite_10       spritesheet_6
     002853AC  _spritesheet_6_metasprite_11       spritesheet_6
     002853D0  _spritesheet_6_metasprite_12       spritesheet_6
     002853F4  _spritesheet_6_metasprite_13       spritesheet_6
     00285418  _spritesheet_6_metasprite_14       spritesheet_6
     0028543C  _spritesheet_6_metasprite_15       spritesheet_6
     00285460  _spritesheet_6_metasprite_16       spritesheet_6
     00285484  _spritesheet_6_metasprite_17       spritesheet_6
     002854A8  _spritesheet_6_metasprite_18       spritesheet_6
     002854CC  _spritesheet_6_metasprite_19       spritesheet_6
     002854F0  _spritesheet_6_metasprite_20       spritesheet_6
     00285514  _spritesheet_6_metasprite_21       spritesheet_6
     00285538  _spritesheet_6_metasprite_22       spritesheet_6
     0028555C  _spritesheet_6_metasprite_23       spritesheet_6
     00285580  _spritesheet_6_metasprite_24       spritesheet_6
     002855A4  _spritesheet_6_metasprite_25       spritesheet_6
     002855C8  _spritesheet_6_metasprite_26       spritesheet_6
     002855EC  _spritesheet_6_metasprite_27       spritesheet_6
     00285610  _spritesheet_6_metasprite_28       spritesheet_6
     00285634  _spritesheet_6_metasprites         spritesheet_6
     0028566E  _spritesheet_6_animations          spritesheet_6
     0028568E  _spritesheet_6_animations_lookup   spritesheet_6
     00285692  _spritesheet_6                     spritesheet_6
     002856A3  ___func_tilemap_14                 tilemap_14
     002856A3  _tilemap_14                        tilemap_14
     00285BA3  ___func_tilemap_36                 tilemap_36
     00285BA3  _tilemap_36                        tilemap_36
     00285FDB  ___func_tilemap_50                 tilemap_50
     00285FDB  _tilemap_50                        tilemap_50
ASxxxx Linker V03.00 + NoICE + sdld,  page 122.
Hexadecimal  [32-Bits]

Area                                    Addr        Size        Decimal Bytes (Attributes)
--------------------------------        ----        ----        ------- ----- ------------
_CODE_40                            00284000    00003FFF =       16383. bytes (REL,CON)

      Value  Global                              Global Defined In Module
      -----  --------------------------------   ------------------------
     0028648B  ___func_tilemap_7                  tilemap_7
     0028648B  _tilemap_7                         tilemap_7
     0028698B  ___func_tilemap_76                 tilemap_76
     0028698B  _tilemap_76                        tilemap_76
     00286E0B  ___func_tilemap_78                 tilemap_78
     00286E0B  _tilemap_78                        tilemap_78
     0028728B  ___func_tilemap_87                 tilemap_87
     0028728B  _tilemap_87                        tilemap_87
     0028770B  ___func_tileset_32                 tileset_32
     0028770B  _tileset_32                        tileset_32
     00287B9D  ___func_tileset_89                 tileset_89
     00287B9D  _tileset_89                        tileset_89

ASxxxx Linker V03.00 + NoICE + sdld,  page 123.
Hexadecimal  [32-Bits]

Area                                    Addr        Size        Decimal Bytes (Attributes)
--------------------------------        ----        ----        ------- ----- ------------
_CODE_41                            00294000    00004000 =       16384. bytes (REL,CON)

      Value  Global                              Global Defined In Module
      -----  --------------------------------   ------------------------
     00294000  ___func_scene_103_collisions       scene_103_collisions
     00294000  _scene_103_collisions              scene_103_collisions
     00294360  ___func_scene_109_collisions       scene_109_collisions
     00294360  _scene_109_collisions              scene_109_collisions
     002946C0  ___func_scene_3_collisions         scene_3_collisions
     002946C0  _scene_3_collisions                scene_3_collisions
     00294A80  ___func_scene_46_collisions        scene_46_collisions
     00294A80  _scene_46_collisions               scene_46_collisions
     00294DF0  ___func_scene_53_collisions        scene_53_collisions
     00294DF0  _scene_53_collisions               scene_53_collisions
     00295250  ___func_scene_8_collisions         scene_8_collisions
     00295250  _scene_8_collisions                scene_8_collisions
     002955D4  _script_s145_init                  
     00295630  ___func_tilemap_107                tilemap_107
     00295630  _tilemap_107                       tilemap_107
     002959F0  ___func_tilemap_118                tilemap_118
     002959F0  _tilemap_118                       tilemap_118
     00295D74  ___func_tilemap_121                tilemap_121
     00295D74  _tilemap_121                       tilemap_121
     002960F8  ___func_tilemap_18                 tilemap_18
     002960F8  _tilemap_18                        tilemap_18
     00296468  ___func_tilemap_45                 tilemap_45
     00296468  _tilemap_45                        tilemap_45
     002967C8  ___func_tilemap_6                  tilemap_6
     002967C8  _tilemap_6                         tilemap_6
     00296C28  ___func_tilemap_96                 tilemap_96
     00296C28  _tilemap_96                        tilemap_96
     00296F88  ___func_tileset_7                  tileset_7
     00296F88  _tileset_7                         tileset_7
     002973DA  ___func_tileset_84                 tileset_84
     002973DA  _tileset_84                        tileset_84
     002977DC  ___func_tileset_86                 tileset_86
     002977DC  _tileset_86                        tileset_86
     00297BFE  ___func_tileset_90                 tileset_90
     00297BFE  _tileset_90                        tileset_90

ASxxxx Linker V03.00 + NoICE + sdld,  page 124.
Hexadecimal  [32-Bits]

Area                                    Addr        Size        Decimal Bytes (Attributes)
--------------------------------        ----        ----        ------- ----- ------------
_CODE_30                            001E4000    00004000 =       16384. bytes (REL,CON)

      Value  Global                              Global Defined In Module
      -----  --------------------------------   ------------------------
     001E4000  ___func_scene_104_collisions       scene_104_collisions
     001E4000  _scene_104_collisions              scene_104_collisions
     001E4A50  ___func_scene_108_collisions       scene_108_collisions
     001E4A50  _scene_108_collisions              scene_108_collisions
     001E54A0  _script_s102t1_interact            
     001E54CC  ___func_tilemap_0                  tilemap_0
     001E54CC  _tilemap_0                         tilemap_0
     001E5F1C  ___func_tilemap_1                  tilemap_1
     001E5F1C  _tilemap_1                         tilemap_1
     001E696C  ___func_tilemap_112                tilemap_112
     001E696C  _tilemap_112                       tilemap_112
     001E6BAC  ___func_tileset_29                 tileset_29
     001E6BAC  _tileset_29                        tileset_29
     001E75EE  ___func_tileset_6                  tileset_6
     001E75EE  _tileset_6                         tileset_6
ASxxxx Linker V03.00 + NoICE + sdld,  page 125.
Hexadecimal  [32-Bits]

Area                                    Addr        Size        Decimal Bytes (Attributes)
--------------------------------        ----        ----        ------- ----- ------------
_CODE_21                            00154000    00003FFF =       16383. bytes (REL,CON)

      Value  Global                              Global Defined In Module
      -----  --------------------------------   ------------------------
     00154000  ___func_scene_104_sprites          scene_104_sprites
     00154000  _scene_104_sprites                 scene_104_sprites
     00154003  ___func_scene_88_collisions        scene_88_collisions
     00154003  _scene_88_collisions               scene_88_collisions
     00154EC7  ___func_scene_99_collisions        scene_99_collisions
     00154EC7  _scene_99_collisions               scene_99_collisions
     001552FF  ___func_tilemap_117                tilemap_117
     001552FF  _tilemap_117                       tilemap_117
     001561FF  ___func_tilemap_120                tilemap_120
     001561FF  _tilemap_120                       tilemap_120
     001570FF  ___func_tilemap_65                 tilemap_65
     001570FF  _tilemap_65                        tilemap_65
ASxxxx Linker V03.00 + NoICE + sdld,  page 126.
Hexadecimal  [32-Bits]

Area                                    Addr        Size        Decimal Bytes (Attributes)
--------------------------------        ----        ----        ------- ----- ------------
_CODE_9                             00094000    00004000 =       16384. bytes (REL,CON)

      Value  Global                              Global Defined In Module
      -----  --------------------------------   ------------------------
     00094000  ___func_scene_104_triggers         scene_104_triggers
     00094000  _scene_104_triggers                scene_104_triggers
     00094018  ___func_scene_62_collisions        scene_62_collisions
     00094018  _scene_62_collisions               scene_62_collisions
     00094720  ___func_tilemap_23                 tilemap_23
     00094720  _tilemap_23                        tilemap_23
     00096390  ___func_tilemap_5                  tilemap_5
     00096390  _tilemap_5                         tilemap_5

ASxxxx Linker V03.00 + NoICE + sdld,  page 127.
Hexadecimal  [32-Bits]

Area                                    Addr        Size        Decimal Bytes (Attributes)
--------------------------------        ----        ----        ------- ----- ------------
_CODE_42                            002A4000    00004000 =       16384. bytes (REL,CON)

      Value  Global                              Global Defined In Module
      -----  --------------------------------   ------------------------
     002A4000  ___func_scene_105_collisions       scene_105_collisions
     002A4000  _scene_105_collisions              scene_105_collisions
     002A42D0  ___func_scene_123_sprites          scene_123_sprites
     002A42D0  _scene_123_sprites                 scene_123_sprites
     002A42DC  ___func_scene_25_collisions        scene_25_collisions
     002A42DC  _scene_25_collisions               scene_25_collisions
     002A45F4  ___func_scene_28_collisions        scene_28_collisions
     002A45F4  _scene_28_collisions               scene_28_collisions
     002A48C4  ___func_scene_33_collisions        scene_33_collisions
     002A48C4  _scene_33_collisions               scene_33_collisions
     002A4BDC  ___func_scene_37_collisions        scene_37_collisions
     002A4BDC  _scene_37_collisions               scene_37_collisions
     002A4EDC  ___func_scene_39_collisions        scene_39_collisions
     002A4EDC  _scene_39_collisions               scene_39_collisions
     002A51AC  ___func_scene_64_collisions        scene_64_collisions
     002A51AC  _scene_64_collisions               scene_64_collisions
     002A547C  _script_s112_init                  
     002A5742  ___func_tilemap_2                  tilemap_2
     002A5742  _tilemap_2                         tilemap_2
     002A5A12  ___func_tilemap_58                 tilemap_58
     002A5A12  _tilemap_58                        tilemap_58
     002A5CE2  ___func_tilemap_75                 tilemap_75
     002A5CE2  _tilemap_75                        tilemap_75
     002A5FE2  ___func_tilemap_77                 tilemap_77
     002A5FE2  _tilemap_77                        tilemap_77
     002A62B2  ___func_tilemap_82                 tilemap_82
     002A62B2  _tilemap_82                        tilemap_82
     002A6582  ___func_tilemap_84                 tilemap_84
     002A6582  _tilemap_84                        tilemap_84
     002A689A  ___func_tilemap_91                 tilemap_91
     002A689A  _tilemap_91                        tilemap_91
     002A6BB2  ___func_tileset_20                 tileset_20
     002A6BB2  _tileset_20                        tileset_20
     002A6EE4  ___func_tileset_22                 tileset_22
     002A6EE4  _tileset_22                        tileset_22
     002A71E6  ___func_tileset_23                 tileset_23
     002A71E6  _tileset_23                        tileset_23
     002A74A8  ___func_tileset_4                  tileset_4
     002A74A8  _tileset_4                         tileset_4
     002A77AA  ___func_tileset_56                 tileset_56
     002A77AA  _tileset_56                        tileset_56
     002A7AFC  ___func_tileset_62                 tileset_62
     002A7AFC  _tileset_62                        tileset_62
     002A7CFE  ___func_tileset_82                 tileset_82
     002A7CFE  _tileset_82                        tileset_82
ASxxxx Linker V03.00 + NoICE + sdld,  page 128.
Hexadecimal  [32-Bits]

Area                                    Addr        Size        Decimal Bytes (Attributes)
--------------------------------        ----        ----        ------- ----- ------------
_CODE_23                            00174000    00003FFF =       16383. bytes (REL,CON)

      Value  Global                              Global Defined In Module
      -----  --------------------------------   ------------------------
     00174000  ___func_scene_106_sprites          scene_106_sprites
     00174000  _scene_106_sprites                 scene_106_sprites
     00174003  ___func_scene_21_triggers          scene_21_triggers
     00174003  _scene_21_triggers                 scene_21_triggers
     0017401B  ___func_tilemap_111                tilemap_111
     0017401B  _tilemap_111                       tilemap_111
     00174E8B  ___func_tilemap_113                tilemap_113
     00174E8B  _tilemap_113                       tilemap_113
     00175CFB  ___func_tilemap_114                tilemap_114
     00175CFB  _tilemap_114                       tilemap_114
     00176B6B  ___func_tileset_3                  tileset_3
     00176B6B  _tileset_3                         tileset_3
     0017793D  ___func_tileset_49                 tileset_49
     0017793D  _tileset_49                        tileset_49

ASxxxx Linker V03.00 + NoICE + sdld,  page 129.
Hexadecimal  [32-Bits]

Area                                    Addr        Size        Decimal Bytes (Attributes)
--------------------------------        ----        ----        ------- ----- ------------
_CODE_27                            001B4000    00003FFF =       16383. bytes (REL,CON)

      Value  Global                              Global Defined In Module
      -----  --------------------------------   ------------------------
     001B4000  ___func_scene_107_sprites          scene_107_sprites
     001B4000  _scene_107_sprites                 scene_107_sprites
     001B4003  ___func_scene_118_collisions       scene_118_collisions
     001B4003  _scene_118_collisions              scene_118_collisions
     001B47D3  ___func_scene_32_triggers          scene_32_triggers
     001B47D3  _scene_32_triggers                 scene_32_triggers
     001B47EB  ___func_scene_49_collisions        scene_49_collisions
     001B47EB  _scene_49_collisions               scene_49_collisions
     001B532B  ___func_tilemap_20                 tilemap_20
     001B532B  _tilemap_20                        tilemap_20
     001B5E6B  ___func_tilemap_21                 tilemap_21
     001B5E6B  _tilemap_21                        tilemap_21
     001B69AB  ___func_tileset_35                 tileset_35
     001B69AB  _tileset_35                        tileset_35
     001B74CD  ___func_tileset_57                 tileset_57
     001B74CD  _tileset_57                        tileset_57

ASxxxx Linker V03.00 + NoICE + sdld,  page 130.
Hexadecimal  [32-Bits]

Area                                    Addr        Size        Decimal Bytes (Attributes)
--------------------------------        ----        ----        ------- ----- ------------
_CODE_19                            00134000    00004000 =       16384. bytes (REL,CON)

      Value  Global                              Global Defined In Module
      -----  --------------------------------   ------------------------
     00134000  ___func_scene_108_triggers         scene_108_triggers
     00134000  _scene_108_triggers                scene_108_triggers
     00134018  ___func_scene_11_sprites           scene_11_sprites
     00134018  _scene_11_sprites                  scene_11_sprites
     0013401E  ___func_scene_70_collisions        scene_70_collisions
     0013401E  _scene_70_collisions               scene_70_collisions
     0013505E  ___func_tilemap_71                 tilemap_71
     0013505E  _tilemap_71                        tilemap_71
     0013609E  ___func_tilemap_8                  tilemap_8
     0013609E  _tilemap_8                         tilemap_8
     001370DE  ___func_tileset_0                  tileset_0
     001370DE  _tileset_0                         tileset_0
ASxxxx Linker V03.00 + NoICE + sdld,  page 131.
Hexadecimal  [32-Bits]

Area                                    Addr        Size        Decimal Bytes (Attributes)
--------------------------------        ----        ----        ------- ----- ------------
_CODE_35                            00234000    00004000 =       16384. bytes (REL,CON)

      Value  Global                              Global Defined In Module
      -----  --------------------------------   ------------------------
     00234000  ___func_scene_110_collisions       scene_110_collisions
     00234000  _scene_110_collisions              scene_110_collisions
     00234780  ___func_scene_111_collisions       scene_111_collisions
     00234780  _scene_111_collisions              scene_111_collisions
     00234F00  ___func_scene_14_sprites           scene_14_sprites
     00234F00  _scene_14_sprites                  scene_14_sprites
     00234F06  ___func_scene_34_collisions        scene_34_collisions
     00234F06  _scene_34_collisions               scene_34_collisions
     00235606  ___func_scene_47_collisions        scene_47_collisions
     00235606  _scene_47_collisions               scene_47_collisions
     00235B16  ___func_scene_50_collisions        scene_50_collisions
     00235B16  _scene_50_collisions               scene_50_collisions
     00236296  ___func_tilemap_22                 tilemap_22
     00236296  _tilemap_22                        tilemap_22
     00236A16  ___func_tilemap_63                 tilemap_63
     00236A16  _tilemap_63                        tilemap_63
     0023711E  ___func_tilemap_95                 tilemap_95
     0023711E  _tilemap_95                        tilemap_95
     0023789E  ___func_tileset_59                 tileset_59
     0023789E  _tileset_59                        tileset_59

ASxxxx Linker V03.00 + NoICE + sdld,  page 132.
Hexadecimal  [32-Bits]

Area                                    Addr        Size        Decimal Bytes (Attributes)
--------------------------------        ----        ----        ------- ----- ------------
_CODE_45                            002D4000    00004000 =       16384. bytes (REL,CON)

      Value  Global                              Global Defined In Module
      -----  --------------------------------   ------------------------
     002D4000  ___func_scene_110_sprites          scene_110_sprites
     002D4000  _scene_110_sprites                 scene_110_sprites
     002D4003  ___func_scene_67_collisions        scene_67_collisions
     002D4003  _scene_67_collisions               scene_67_collisions
     002D416B  ___func_scene_76_collisions        scene_76_collisions
     002D416B  _scene_76_collisions               scene_76_collisions
     002D42D3  ___func_scene_81_collisions        scene_81_collisions
     002D42D3  _scene_81_collisions               scene_81_collisions
     002D443B  ___func_scene_86_collisions        scene_86_collisions
     002D443B  _scene_86_collisions               scene_86_collisions
     002D45A3  ___func_scene_90_collisions        scene_90_collisions
     002D45A3  _scene_90_collisions               scene_90_collisions
     002D470B  ___func_scene_91_collisions        scene_91_collisions
     002D470B  _scene_91_collisions               scene_91_collisions
     002D4873  ___func_scene_92_collisions        scene_92_collisions
     002D4873  _scene_92_collisions               scene_92_collisions
     002D49DB  ___func_scene_93_collisions        scene_93_collisions
     002D49DB  _scene_93_collisions               scene_93_collisions
     002D4B43  ___func_scene_94_collisions        scene_94_collisions
     002D4B43  _scene_94_collisions               scene_94_collisions
     002D4CAB  ___func_scene_95_collisions        scene_95_collisions
     002D4CAB  _scene_95_collisions               scene_95_collisions
     002D4E13  ___func_scene_96_collisions        scene_96_collisions
     002D4E13  _scene_96_collisions               scene_96_collisions
     002D4F7B  ___func_scene_97_collisions        scene_97_collisions
     002D4F7B  _scene_97_collisions               scene_97_collisions
     002D50E3  ___func_scene_98_collisions        scene_98_collisions
     002D50E3  _scene_98_collisions               scene_98_collisions
     002D524B  _script_s115_init                  
     002D5300  ___func_tilemap_103                tilemap_103
     002D5300  _tilemap_103                       tilemap_103
     002D5468  ___func_tilemap_104                tilemap_104
     002D5468  _tilemap_104                       tilemap_104
     002D55D0  ___func_tilemap_105                tilemap_105
     002D55D0  _tilemap_105                       tilemap_105
     002D5738  ___func_tilemap_106                tilemap_106
     002D5738  _tilemap_106                       tilemap_106
     002D58A0  ___func_tilemap_108                tilemap_108
     002D58A0  _tilemap_108                       tilemap_108
     002D5A08  ___func_tilemap_109                tilemap_109
     002D5A08  _tilemap_109                       tilemap_109
     002D5B70  ___func_tilemap_127                tilemap_127
     002D5B70  _tilemap_127                       tilemap_127
     002D5CD8  ___func_tilemap_24                 tilemap_24
     002D5CD8  _tilemap_24                        tilemap_24
     002D5E40  ___func_tilemap_25                 tilemap_25
     002D5E40  _tilemap_25                        tilemap_25
     002D5FA8  ___func_tilemap_26                 tilemap_26
     002D5FA8  _tilemap_26                        tilemap_26
     002D6110  ___func_tilemap_27                 tilemap_27
ASxxxx Linker V03.00 + NoICE + sdld,  page 133.
Hexadecimal  [32-Bits]

Area                                    Addr        Size        Decimal Bytes (Attributes)
--------------------------------        ----        ----        ------- ----- ------------
_CODE_45                            002D4000    00004000 =       16384. bytes (REL,CON)

      Value  Global                              Global Defined In Module
      -----  --------------------------------   ------------------------
     002D6110  _tilemap_27                        tilemap_27
     002D6278  ___func_tilemap_28                 tilemap_28
     002D6278  _tilemap_28                        tilemap_28
     002D63E0  ___func_tilemap_29                 tilemap_29
     002D63E0  _tilemap_29                        tilemap_29
     002D6548  ___func_tilemap_30                 tilemap_30
     002D6548  _tilemap_30                        tilemap_30
     002D66B0  ___func_tilemap_31                 tilemap_31
     002D66B0  _tilemap_31                        tilemap_31
     002D6818  ___func_tilemap_32                 tilemap_32
     002D6818  _tilemap_32                        tilemap_32
     002D6980  ___func_tilemap_33                 tilemap_33
     002D6980  _tilemap_33                        tilemap_33
     002D6AE8  ___func_tilemap_34                 tilemap_34
     002D6AE8  _tilemap_34                        tilemap_34
     002D6C50  ___func_tilemap_35                 tilemap_35
     002D6C50  _tilemap_35                        tilemap_35
     002D6DB8  ___func_tilemap_37                 tilemap_37
     002D6DB8  _tilemap_37                        tilemap_37
     002D6F20  ___func_tilemap_38                 tilemap_38
     002D6F20  _tilemap_38                        tilemap_38
     002D7088  ___func_tilemap_39                 tilemap_39
     002D7088  _tilemap_39                        tilemap_39
     002D71F0  ___func_tilemap_40                 tilemap_40
     002D71F0  _tilemap_40                        tilemap_40
     002D7358  ___func_tilemap_41                 tilemap_41
     002D7358  _tilemap_41                        tilemap_41
     002D74C0  ___func_tilemap_42                 tilemap_42
     002D74C0  _tilemap_42                        tilemap_42
     002D7628  ___func_tilemap_43                 tilemap_43
     002D7628  _tilemap_43                        tilemap_43
     002D7790  ___func_tilemap_44                 tilemap_44
     002D7790  _tilemap_44                        tilemap_44
     002D78F8  ___func_tilemap_46                 tilemap_46
     002D78F8  _tilemap_46                        tilemap_46
     002D7A60  ___func_tilemap_52                 tilemap_52
     002D7A60  _tilemap_52                        tilemap_52
     002D7BC8  ___func_tilemap_56                 tilemap_56
     002D7BC8  _tilemap_56                        tilemap_56
     002D7D30  ___func_tilemap_62                 tilemap_62
     002D7D30  _tilemap_62                        tilemap_62
     002D7E98  ___func_tilemap_68                 tilemap_68
     002D7E98  _tilemap_68                        tilemap_68
ASxxxx Linker V03.00 + NoICE + sdld,  page 134.
Hexadecimal  [32-Bits]

Area                                    Addr        Size        Decimal Bytes (Attributes)
--------------------------------        ----        ----        ------- ----- ------------
_CODE_24                            00184000    00004000 =       16384. bytes (REL,CON)

      Value  Global                              Global Defined In Module
      -----  --------------------------------   ------------------------
     00184000  ___func_scene_110_triggers         scene_110_triggers
     00184000  _scene_110_triggers                scene_110_triggers
     00184008  ___func_scene_69_collisions        scene_69_collisions
     00184008  _scene_69_collisions               scene_69_collisions
     00184D08  ___func_tilemap_70                 tilemap_70
     00184D08  _tilemap_70                        tilemap_70
     00185A08  ___func_tileset_15                 tileset_15
     00185A08  _tileset_15                        tileset_15
     0018660A  ___func_tileset_2                  tileset_2
     0018660A  _tileset_2                         tileset_2
     001872CC  ___func_tileset_36                 tileset_36
     001872CC  _tileset_36                        tileset_36
     00187EBE  ___func_tileset_76                 tileset_76
     00187EBE  _tileset_76                        tileset_76

ASxxxx Linker V03.00 + NoICE + sdld,  page 135.
Hexadecimal  [32-Bits]

Area                                    Addr        Size        Decimal Bytes (Attributes)
--------------------------------        ----        ----        ------- ----- ------------
_CODE_37                            00254000    00004000 =       16384. bytes (REL,CON)

      Value  Global                              Global Defined In Module
      -----  --------------------------------   ------------------------
     00254000  ___func_scene_111_triggers         scene_111_triggers
     00254000  _scene_111_triggers                scene_111_triggers
     00254008  ___func_scene_20_collisions        scene_20_collisions
     00254008  _scene_20_collisions               scene_20_collisions
     00254608  ___func_scene_68_collisions        scene_68_collisions
     00254608  _scene_68_collisions               scene_68_collisions
     00254C80  ___func_scene_73_collisions        scene_73_collisions
     00254C80  _scene_73_collisions               scene_73_collisions
     002552C0  ___func_scene_75_collisions        scene_75_collisions
     002552C0  _scene_75_collisions               scene_75_collisions
     00255900  ___func_tilemap_49                 tilemap_49
     00255900  _tilemap_49                        tilemap_49
     00255F40  ___func_tilemap_51                 tilemap_51
     00255F40  _tilemap_51                        tilemap_51
     00256580  ___func_tilemap_69                 tilemap_69
     00256580  _tilemap_69                        tilemap_69
     00256BF8  ___func_tileset_13                 tileset_13
     00256BF8  _tileset_13                        tileset_13
     0025721A  ___func_tileset_63                 tileset_63
     0025721A  _tileset_63                        tileset_63
     0025783C  ___func_tileset_69                 tileset_69
     0025783C  _tileset_69                        tileset_69
     00257E3E  ___func_tileset_85                 tileset_85
     00257E3E  _tileset_85                        tileset_85
ASxxxx Linker V03.00 + NoICE + sdld,  page 136.
Hexadecimal  [32-Bits]

Area                                    Addr        Size        Decimal Bytes (Attributes)
--------------------------------        ----        ----        ------- ----- ------------
_CODE_22                            00164000    00003FFF =       16383. bytes (REL,CON)

      Value  Global                              Global Defined In Module
      -----  --------------------------------   ------------------------
     00164000  ___func_scene_112_sprites          scene_112_sprites
     00164000  _scene_112_sprites                 scene_112_sprites
     00164009  ___func_scene_16_collisions        scene_16_collisions
     00164009  _scene_16_collisions               scene_16_collisions
     00164E79  ___func_scene_17_collisions        scene_17_collisions
     00164E79  _scene_17_collisions               scene_17_collisions
     00165CE9  ___func_scene_19_collisions        scene_19_collisions
     00165CE9  _scene_19_collisions               scene_19_collisions
     00166B59  ___func_tilemap_64                 tilemap_64
     00166B59  _tilemap_64                        tilemap_64
     00167A1D  ___func_tileset_19                 tileset_19
     00167A1D  _tileset_19                        tileset_19
ASxxxx Linker V03.00 + NoICE + sdld,  page 137.
Hexadecimal  [32-Bits]

Area                                    Addr        Size        Decimal Bytes (Attributes)
--------------------------------        ----        ----        ------- ----- ------------
_CODE_10                            000A4000    00004000 =       16384. bytes (REL,CON)

      Value  Global                              Global Defined In Module
      -----  --------------------------------   ------------------------
     000A4000  ___func_scene_14_collisions        scene_14_collisions
     000A4000  _scene_14_collisions               scene_14_collisions
     000A50A0  ___func_scene_22_collisions        scene_22_collisions
     000A50A0  _scene_22_collisions               scene_22_collisions
     000A6840  ___func_scene_6_triggers           scene_6_triggers
     000A6840  _scene_6_triggers                  scene_6_triggers
     000A6860  ___func_tilemap_110                tilemap_110
     000A6860  _tilemap_110                       tilemap_110

ASxxxx Linker V03.00 + NoICE + sdld,  page 138.
Hexadecimal  [32-Bits]

Area                                    Addr        Size        Decimal Bytes (Attributes)
--------------------------------        ----        ----        ------- ----- ------------
_CODE_29                            001D4000    00004000 =       16384. bytes (REL,CON)

      Value  Global                              Global Defined In Module
      -----  --------------------------------   ------------------------
     001D4000  ___func_scene_15_collisions        scene_15_collisions
     001D4000  _scene_15_collisions               scene_15_collisions
     001D4A80  _script_timer_0                    
     001D4B18  ___func_tilemap_124                tilemap_124
     001D4B18  _tilemap_124                       tilemap_124
     001D5598  ___func_tileset_31                 tileset_31
     001D5598  _tileset_31                        tileset_31
     001D5FFA  ___func_tileset_37                 tileset_37
     001D5FFA  _tileset_37                        tileset_37
     001D6A8C  ___func_tileset_38                 tileset_38
     001D6A8C  _tileset_38                        tileset_38
     001D751E  ___func_tileset_53                 tileset_53
     001D751E  _tileset_53                        tileset_53

ASxxxx Linker V03.00 + NoICE + sdld,  page 139.
Hexadecimal  [32-Bits]

Area                                    Addr        Size        Decimal Bytes (Attributes)
--------------------------------        ----        ----        ------- ----- ------------
_CODE_39                            00274000    00003FFF =       16383. bytes (REL,CON)

      Value  Global                              Global Defined In Module
      -----  --------------------------------   ------------------------
     00274000  ___func_scene_16_sprites           scene_16_sprites
     00274000  _scene_16_sprites                  scene_16_sprites
     00274009  ___func_scene_54_collisions        scene_54_collisions
     00274009  _scene_54_collisions               scene_54_collisions
     00274509  ___func_scene_60_collisions        scene_60_collisions
     00274509  _scene_60_collisions               scene_60_collisions
     00274A09  ___func_scene_61_collisions        scene_61_collisions
     00274A09  _scene_61_collisions               scene_61_collisions
     00274F09  ___func_tilemap_13                 tilemap_13
     00274F09  _tilemap_13                        tilemap_13
     00275409  ___func_tilemap_19                 tilemap_19
     00275409  _tilemap_19                        tilemap_19
     00275919  ___func_tilemap_4                  tilemap_4
     00275919  _tilemap_4                         tilemap_4
     00275EB9  ___func_tilemap_57                 tilemap_57
     00275EB9  _tilemap_57                        tilemap_57
     00276459  ___func_tilemap_93                 tilemap_93
     00276459  _tilemap_93                        tilemap_93
     002769F9  ___func_tilemap_98                 tilemap_98
     002769F9  _tilemap_98                        tilemap_98
     00276F99  ___func_tileset_16                 tileset_16
     00276F99  _tileset_16                        tileset_16
     002774FB  ___func_tileset_51                 tileset_51
     002774FB  _tileset_51                        tileset_51
     00277A8D  ___func_tileset_58                 tileset_58
     00277A8D  _tileset_58                        tileset_58

ASxxxx Linker V03.00 + NoICE + sdld,  page 140.
Hexadecimal  [32-Bits]

Area                                    Addr        Size        Decimal Bytes (Attributes)
--------------------------------        ----        ----        ------- ----- ------------
_CODE_28                            001C4000    00003FFE =       16382. bytes (REL,CON)

      Value  Global                              Global Defined In Module
      -----  --------------------------------   ------------------------
     001C4000  ___func_scene_17_triggers          scene_17_triggers
     001C4000  _scene_17_triggers                 scene_17_triggers
     001C4028  ___func_scene_32_collisions        scene_32_collisions
     001C4028  _scene_32_collisions               scene_32_collisions
     001C48E8  ___func_scene_78_collisions        scene_78_collisions
     001C48E8  _scene_78_collisions               scene_78_collisions
     001C53E0  ___func_tilemap_66                 tilemap_66
     001C53E0  _tilemap_66                        tilemap_66
     001C5ED8  ___func_tileset_30                 tileset_30
     001C5ED8  _tileset_30                        tileset_30
     001C69CA  ___func_tileset_43                 tileset_43
     001C69CA  _tileset_43                        tileset_43
     001C74EC  ___func_tileset_52                 tileset_52
     001C74EC  _tileset_52                        tileset_52

ASxxxx Linker V03.00 + NoICE + sdld,  page 141.
Hexadecimal  [32-Bits]

Area                                    Addr        Size        Decimal Bytes (Attributes)
--------------------------------        ----        ----        ------- ----- ------------
_CODE_15                            000F4000    00004000 =       16384. bytes (REL,CON)

      Value  Global                              Global Defined In Module
      -----  --------------------------------   ------------------------
     000F4000  ___func_scene_18_collisions        scene_18_collisions
     000F4000  _scene_18_collisions               scene_18_collisions
     000F4240  _script_s22t1_interact             
     000F425C  ___func_tilemap_123                tilemap_123
     000F425C  _tilemap_123                       tilemap_123
     000F52FC  ___func_tileset_55                 tileset_55
     000F52FC  _tileset_55                        tileset_55
     000F697E  ___func_tileset_60                 tileset_60
     000F697E  _tileset_60                        tileset_60
ASxxxx Linker V03.00 + NoICE + sdld,  page 142.
Hexadecimal  [32-Bits]

Area                                    Addr        Size        Decimal Bytes (Attributes)
--------------------------------        ----        ----        ------- ----- ------------
_CODE_31                            001F4000    00003FFE =       16382. bytes (REL,CON)

      Value  Global                              Global Defined In Module
      -----  --------------------------------   ------------------------
     001F4000  ___func_scene_22_triggers          scene_22_triggers
     001F4000  _scene_22_triggers                 scene_22_triggers
     001F4028  ___func_scene_72_collisions        scene_72_collisions
     001F4028  _scene_72_collisions               scene_72_collisions
     001F4A28  ___func_scene_83_collisions        scene_83_collisions
     001F4A28  _scene_83_collisions               scene_83_collisions
     001F53D8  ___func_tilemap_48                 tilemap_48
     001F53D8  _tilemap_48                        tilemap_48
     001F5DD8  ___func_tilemap_59                 tilemap_59
     001F5DD8  _tilemap_59                        tilemap_59
     001F6788  ___func_tileset_17                 tileset_17
     001F6788  _tileset_17                        tileset_17
     001F70FA  ___func_tileset_27                 tileset_27
     001F70FA  _tileset_27                        tileset_27
     001F7AEC  ___func_tileset_47                 tileset_47
     001F7AEC  _tileset_47                        tileset_47

ASxxxx Linker V03.00 + NoICE + sdld,  page 143.
Hexadecimal  [32-Bits]

Area                                    Addr        Size        Decimal Bytes (Attributes)
--------------------------------        ----        ----        ------- ----- ------------
_CODE_18                            00124000    00003FFE =       16382. bytes (REL,CON)

      Value  Global                              Global Defined In Module
      -----  --------------------------------   ------------------------
     00124000  ___func_scene_31_collisions        scene_31_collisions
     00124000  _scene_31_collisions               scene_31_collisions
     00125400  ___func_scene_55_collisions        scene_55_collisions
     00125400  _scene_55_collisions               scene_55_collisions
     00126440  _script_s22t3_interact             
     0012645C  ___func_tilemap_79                 tilemap_79
     0012645C  _tilemap_79                        tilemap_79
     0012785C  ___func_tileset_10                 tileset_10
     0012785C  _tileset_10                        tileset_10
ASxxxx Linker V03.00 + NoICE + sdld,  page 144.
Hexadecimal  [32-Bits]

Area                                    Addr        Size        Decimal Bytes (Attributes)
--------------------------------        ----        ----        ------- ----- ------------
_CODE_26                            001A4000    00004000 =       16384. bytes (REL,CON)

      Value  Global                              Global Defined In Module
      -----  --------------------------------   ------------------------
     001A4000  ___func_scene_48_collisions        scene_48_collisions
     001A4000  _scene_48_collisions               scene_48_collisions
     001A4B40  ___func_scene_70_triggers          scene_70_triggers
     001A4B40  _scene_70_triggers                 scene_70_triggers
     001A4B70  ___func_scene_87_collisions        scene_87_collisions
     001A4B70  _scene_87_collisions               scene_87_collisions
     001A5278  ___func_tileset_41                 tileset_41
     001A5278  _tileset_41                        tileset_41
     001A5DFA  ___func_tileset_42                 tileset_42
     001A5DFA  _tileset_42                        tileset_42
     001A693C  ___func_tileset_44                 tileset_44
     001A693C  _tileset_44                        tileset_44
     001A74AE  ___func_tileset_5                  tileset_5
     001A74AE  _tileset_5                         tileset_5

ASxxxx Linker V03.00 + NoICE + sdld,  page 145.
Hexadecimal  [32-Bits]

Area                                    Addr        Size        Decimal Bytes (Attributes)
--------------------------------        ----        ----        ------- ----- ------------
_CODE_16                            00104000    00003FFF =       16383. bytes (REL,CON)

      Value  Global                              Global Defined In Module
      -----  --------------------------------   ------------------------
     00104000  ___func_scene_58_collisions        scene_58_collisions
     00104000  _scene_58_collisions               scene_58_collisions
     00105500  ___func_scene_85_collisions        scene_85_collisions
     00105500  _scene_85_collisions               scene_85_collisions
     00106A18  ___func_spritesheet_15             spritesheet_15
     00106A18  _spritesheet_15_metasprite_0       spritesheet_15
     00106A44  _spritesheet_15_metasprite_1       spritesheet_15
     00106A70  _spritesheet_15_metasprite_2       spritesheet_15
     00106A9C  _spritesheet_15_metasprite_3       spritesheet_15
     00106AA0  _spritesheet_15_metasprites        spritesheet_15
     00106AB0  _spritesheet_15_animations         spritesheet_15
     00106AD0  _spritesheet_15_animations_looku   spritesheet_15
     00106AD6  _spritesheet_15                    spritesheet_15
     00106AE7  ___func_tilemap_61                 tilemap_61
     00106AE7  _tilemap_61                        tilemap_61
ASxxxx Linker V03.00 + NoICE + sdld,  page 146.
Hexadecimal  [32-Bits]

Area                                    Addr        Size        Decimal Bytes (Attributes)
--------------------------------        ----        ----        ------- ----- ------------
_CODE_13                            000D4000    00003FFF =       16383. bytes (REL,CON)

      Value  Global                              Global Defined In Module
      -----  --------------------------------   ------------------------
     000D4000  _script_input_0                    
     000D4012  ___func_spritesheet_25             spritesheet_25
     000D4012  _spritesheet_25_metasprite_0       spritesheet_25
     000D4016  _spritesheet_25_metasprite_1       spritesheet_25
     000D4066  _spritesheet_25_metasprite_2       spritesheet_25
     000D40B2  _spritesheet_25_metasprite_3       spritesheet_25
     000D4102  _spritesheet_25_metasprite_4       spritesheet_25
     000D414E  _spritesheet_25_metasprites        spritesheet_25
     000D4158  _spritesheet_25_animations         spritesheet_25
     000D4168  _spritesheet_25_animations_looku   spritesheet_25
     000D416A  _spritesheet_25                    spritesheet_25
     000D417B  ___func_tilemap_119                tilemap_119
     000D417B  _tilemap_119                       tilemap_119
     000D52FB  ___func_tileset_45                 tileset_45
     000D52FB  _tileset_45                        tileset_45
     000D697D  ___func_tileset_48                 tileset_48
     000D697D  _tileset_48                        tileset_48

ASxxxx Linker V03.00 + NoICE + sdld,  page 147.
Hexadecimal  [32-Bits]

Area                                    Addr        Size        Decimal Bytes (Attributes)
--------------------------------        ----        ----        ------- ----- ------------
_CODE_3                             00034000    00002AF7 =       10999. bytes (REL,CON)

      Value  Global                              Global Defined In Module
      -----  --------------------------------   ------------------------
     00034000  _adventure_init                    adventure
     00034015  _adventure_update                  adventure
     00034755  _logo_init                         logo
     00034765  _logo_update                       logo
     00034766  _platform_init                     platform
     0003491E  _platform_update                   platform
     0003595E  _pointnclick_init                  pointnclick
     00035985  _pointnclick_update                pointnclick
     00035CAE  _shmup_init                        shmup
     00035D4A  _shmup_update                      shmup
     000363E0  _topdown_init                      topdown
     00036477  _topdown_update                    topdown
ASxxxx Linker V03.00 + NoICE + sdld,  page 148.
Hexadecimal  [32-Bits]

Area                                    Addr        Size        Decimal Bytes (Attributes)
--------------------------------        ----        ----        ------- ----- ------------
_HEADER_LCD0                        00000000    00000003 =           3. bytes (ABS,CON)

      Value  Global                              Global Defined In Module
      -----  --------------------------------   ------------------------
ASxxxx Linker V03.00 + NoICE + sdld,  page 149.

Files Linked                              [ module(s) ]

C:\Users\iwaza\AppData\Local\Temp/_gbstools/gbdk/lib/small/asxxxx/gb/crt0.o
                                          [ Runtime ]
C:/Users/iwaza/AppData/Local/Temp/_gbsbuild/obj/absolute.rel
                                          [ absolute ]
C:/Users/iwaza/AppData/Local/Temp/_gbsbuild/obj/actor.rel
                                          [ actor ]
C:/Users/iwaza/AppData/Local/Temp/_gbsbuild/obj/bankdata.rel
                                          [ bankdata ]
C:/Users/iwaza/AppData/Local/Temp/_gbsbuild/obj/bootstrap.rel
                                          [  ]
C:/Users/iwaza/AppData/Local/Temp/_gbsbuild/obj/camera.rel
                                          [ camera ]
C:/Users/iwaza/AppData/Local/Temp/_gbsbuild/obj/core.rel
                                          [ core ]
C:/Users/iwaza/AppData/Local/Temp/_gbsbuild/obj/data_manager.rel
                                          [ data_manager ]
C:/Users/iwaza/AppData/Local/Temp/_gbsbuild/obj/events.rel
                                          [ events ]
C:/Users/iwaza/AppData/Local/Temp/_gbsbuild/obj/fade_manager.rel
                                          [ fade_manager ]
C:/Users/iwaza/AppData/Local/Temp/_gbsbuild/obj/flasher_s.rel
                                          [  ]
C:/Users/iwaza/AppData/Local/Temp/_gbsbuild/obj/flasher.rel
                                          [ flasher ]
C:/Users/iwaza/AppData/Local/Temp/_gbsbuild/obj/game_time.rel
                                          [ game_time ]
C:/Users/iwaza/AppData/Local/Temp/_gbsbuild/obj/input.rel
                                          [ input ]
C:/Users/iwaza/AppData/Local/Temp/_gbsbuild/obj/interrupt_sio.rel
                                          [  ]
C:/Users/iwaza/AppData/Local/Temp/_gbsbuild/obj/interrupt_timer.rel
                                          [  ]
C:/Users/iwaza/AppData/Local/Temp/_gbsbuild/obj/interrupts.rel
                                          [ interrupts ]
C:/Users/iwaza/AppData/Local/Temp/_gbsbuild/obj/load_save.rel
                                          [ load_save ]
C:/Users/iwaza/AppData/Local/Temp/_gbsbuild/obj/math.rel
                                          [ math ]
C:/Users/iwaza/AppData/Local/Temp/_gbsbuild/obj/music_manager.rel
                                          [ music_manager ]
C:/Users/iwaza/AppData/Local/Temp/_gbsbuild/obj/oam_utils.rel
                                          [ OAM_utils ]
C:/Users/iwaza/AppData/Local/Temp/_gbsbuild/obj/palette.rel
                                          [ palette ]
C:/Users/iwaza/AppData/Local/Temp/_gbsbuild/obj/parallax.rel
                                          [ parallax ]
C:/Users/iwaza/AppData/Local/Temp/_gbsbuild/obj/projectiles.rel
                                          [ projectiles ]
C:/Users/iwaza/AppData/Local/Temp/_gbsbuild/obj/sample_player.rel
                                          [ sample_player ]
C:/Users/iwaza/AppData/Local/Temp/_gbsbuild/obj/scroll_a.rel
                                          [  ]
C:/Users/iwaza/AppData/Local/Temp/_gbsbuild/obj/scroll.rel
                                          [ scroll ]
C:/Users/iwaza/AppData/Local/Temp/_gbsbuild/obj/set_tile_submap.rel
                                          [  ]
C:/Users/iwaza/AppData/Local/Temp/_gbsbuild/obj/sgb_border.rel
                                          [ sgb_border ]
C:/Users/iwaza/AppData/Local/Temp/_gbsbuild/obj/sio.rel
                                          [ sio ]
C:/Users/iwaza/AppData/Local/Temp/_gbsbuild/obj/states_caller.rel
                                          [  ]
C:/Users/iwaza/AppData/Local/Temp/_gbsbuild/obj/system.rel
                                          [ system ]
C:/Users/iwaza/AppData/Local/Temp/_gbsbuild/obj/trigger.rel
                                          [ trigger ]
C:/Users/iwaza/AppData/Local/Temp/_gbsbuild/obj/ui_a.rel
                                          [  ]
C:/Users/iwaza/AppData/Local/Temp/_gbsbuild/obj/ui.rel
                                          [ ui ]
C:/Users/iwaza/AppData/Local/Temp/_gbsbuild/obj/vm_actor.rel
                                          [ vm_actor ]
C:/Users/iwaza/AppData/Local/Temp/_gbsbuild/obj/vm_camera.rel
                                          [ vm_camera ]
C:/Users/iwaza/AppData/Local/Temp/_gbsbuild/obj/vm_gameboy.rel
                                          [ vm_gameboy ]
C:/Users/iwaza/AppData/Local/Temp/_gbsbuild/obj/vm_instructions.rel
                                          [ vm_instructions ]
C:/Users/iwaza/AppData/Local/Temp/_gbsbuild/obj/vm_load_save.rel
                                          [ vm_load_save ]
C:/Users/iwaza/AppData/Local/Temp/_gbsbuild/obj/vm_math.rel
                                          [ vm_math ]
C:/Users/iwaza/AppData/Local/Temp/_gbsbuild/obj/vm_music.rel
                                          [ vm_music ]
C:/Users/iwaza/AppData/Local/Temp/_gbsbuild/obj/vm_palette.rel
                                          [ vm_palette ]
C:/Users/iwaza/AppData/Local/Temp/_gbsbuild/obj/vm_projectiles.rel
                                          [ vm_projectiles ]
C:/Users/iwaza/AppData/Local/Temp/_gbsbuild/obj/vm_rtc.rel
                                          [ vm_rtc ]
C:/Users/iwaza/AppData/Local/Temp/_gbsbuild/obj/vm_scene.rel
                                          [ vm_scene ]
C:/Users/iwaza/AppData/Local/Temp/_gbsbuild/obj/vm_sgb.rel
                                          [ vm_sgb ]
C:/Users/iwaza/AppData/Local/Temp/_gbsbuild/obj/vm_sio.rel
                                          [ vm_sio ]
C:/Users/iwaza/AppData/Local/Temp/_gbsbuild/obj/vm_ui_a.rel
                                          [ vm_ui_a ]
C:/Users/iwaza/AppData/Local/Temp/_gbsbuild/obj/vm_ui.rel
                                          [ vm_ui ]
C:/Users/iwaza/AppData/Local/Temp/_gbsbuild/obj/vm.rel
                                          [ vm ]
C:/Users/iwaza/AppData/Local/Temp/_gbsbuild/obj/background_0.rel
                                          [ background_0 ]
C:/Users/iwaza/AppData/Local/Temp/_gbsbuild/obj/background_1.rel
                                          [ background_1 ]
C:/Users/iwaza/AppData/Local/Temp/_gbsbuild/obj/background_10.rel
                                          [ background_10 ]
C:/Users/iwaza/AppData/Local/Temp/_gbsbuild/obj/background_100.rel
                                          [ background_100 ]
C:/Users/iwaza/AppData/Local/Temp/_gbsbuild/obj/background_101.rel
                                          [ background_101 ]
C:/Users/iwaza/AppData/Local/Temp/_gbsbuild/obj/background_102.rel
                                          [ background_102 ]
C:/Users/iwaza/AppData/Local/Temp/_gbsbuild/obj/background_103.rel
                                          [ background_103 ]
C:/Users/iwaza/AppData/Local/Temp/_gbsbuild/obj/background_104.rel
                                          [ background_104 ]
C:/Users/iwaza/AppData/Local/Temp/_gbsbuild/obj/background_105.rel
                                          [ background_105 ]
C:/Users/iwaza/AppData/Local/Temp/_gbsbuild/obj/background_106.rel
                                          [ background_106 ]
C:/Users/iwaza/AppData/Local/Temp/_gbsbuild/obj/background_107.rel
                                          [ background_107 ]
C:/Users/iwaza/AppData/Local/Temp/_gbsbuild/obj/background_108.rel
                                          [ background_108 ]
C:/Users/iwaza/AppData/Local/Temp/_gbsbuild/obj/background_109.rel
                                          [ background_109 ]
C:/Users/iwaza/AppData/Local/Temp/_gbsbuild/obj/background_11.rel
                                          [ background_11 ]
C:/Users/iwaza/AppData/Local/Temp/_gbsbuild/obj/background_110.rel
                                          [ background_110 ]
C:/Users/iwaza/AppData/Local/Temp/_gbsbuild/obj/background_111.rel
                                          [ background_111 ]
C:/Users/iwaza/AppData/Local/Temp/_gbsbuild/obj/background_112.rel
                                          [ background_112 ]
C:/Users/iwaza/AppData/Local/Temp/_gbsbuild/obj/background_113.rel
                                          [ background_113 ]
C:/Users/iwaza/AppData/Local/Temp/_gbsbuild/obj/background_114.rel
                                          [ background_114 ]
C:/Users/iwaza/AppData/Local/Temp/_gbsbuild/obj/background_115.rel
                                          [ background_115 ]
C:/Users/iwaza/AppData/Local/Temp/_gbsbuild/obj/background_116.rel
                                          [ background_116 ]
C:/Users/iwaza/AppData/Local/Temp/_gbsbuild/obj/background_117.rel
                                          [ background_117 ]
C:/Users/iwaza/AppData/Local/Temp/_gbsbuild/obj/background_118.rel
                                          [ background_118 ]
C:/Users/iwaza/AppData/Local/Temp/_gbsbuild/obj/background_119.rel
                                          [ background_119 ]
C:/Users/iwaza/AppData/Local/Temp/_gbsbuild/obj/background_12.rel
                                          [ background_12 ]
C:/Users/iwaza/AppData/Local/Temp/_gbsbuild/obj/background_120.rel
                                          [ background_120 ]
C:/Users/iwaza/AppData/Local/Temp/_gbsbuild/obj/background_121.rel
                                          [ background_121 ]
C:/Users/iwaza/AppData/Local/Temp/_gbsbuild/obj/background_122.rel
                                          [ background_122 ]
C:/Users/iwaza/AppData/Local/Temp/_gbsbuild/obj/background_123.rel
                                          [ background_123 ]
C:/Users/iwaza/AppData/Local/Temp/_gbsbuild/obj/background_124.rel
                                          [ background_124 ]
C:/Users/iwaza/AppData/Local/Temp/_gbsbuild/obj/background_125.rel
                                          [ background_125 ]
C:/Users/iwaza/AppData/Local/Temp/_gbsbuild/obj/background_126.rel
                                          [ background_126 ]
C:/Users/iwaza/AppData/Local/Temp/_gbsbuild/obj/background_127.rel
                                          [ background_127 ]
C:/Users/iwaza/AppData/Local/Temp/_gbsbuild/obj/background_128.rel
                                          [ background_128 ]
C:/Users/iwaza/AppData/Local/Temp/_gbsbuild/obj/background_129.rel
                                          [ background_129 ]
C:/Users/iwaza/AppData/Local/Temp/_gbsbuild/obj/background_13.rel
                                          [ background_13 ]
C:/Users/iwaza/AppData/Local/Temp/_gbsbuild/obj/background_130.rel
                                          [ background_130 ]
C:/Users/iwaza/AppData/Local/Temp/_gbsbuild/obj/background_131.rel
                                          [ background_131 ]
C:/Users/iwaza/AppData/Local/Temp/_gbsbuild/obj/background_132.rel
                                          [ background_132 ]
C:/Users/iwaza/AppData/Local/Temp/_gbsbuild/obj/background_133.rel
                                          [ background_133 ]
C:/Users/iwaza/AppData/Local/Temp/_gbsbuild/obj/background_134.rel
                                          [ background_134 ]
C:/Users/iwaza/AppData/Local/Temp/_gbsbuild/obj/background_135.rel
                                          [ background_135 ]
C:/Users/iwaza/AppData/Local/Temp/_gbsbuild/obj/background_136.rel
                                          [ background_136 ]
C:/Users/iwaza/AppData/Local/Temp/_gbsbuild/obj/background_137.rel
                                          [ background_137 ]
C:/Users/iwaza/AppData/Local/Temp/_gbsbuild/obj/background_14.rel
                                          [ background_14 ]
C:/Users/iwaza/AppData/Local/Temp/_gbsbuild/obj/background_15.rel
                                          [ background_15 ]
C:/Users/iwaza/AppData/Local/Temp/_gbsbuild/obj/background_16.rel
                                          [ background_16 ]
C:/Users/iwaza/AppData/Local/Temp/_gbsbuild/obj/background_17.rel
                                          [ background_17 ]
C:/Users/iwaza/AppData/Local/Temp/_gbsbuild/obj/background_18.rel
                                          [ background_18 ]
C:/Users/iwaza/AppData/Local/Temp/_gbsbuild/obj/background_19.rel
                                          [ background_19 ]
C:/Users/iwaza/AppData/Local/Temp/_gbsbuild/obj/background_2.rel
                                          [ background_2 ]
C:/Users/iwaza/AppData/Local/Temp/_gbsbuild/obj/background_20.rel
                                          [ background_20 ]
C:/Users/iwaza/AppData/Local/Temp/_gbsbuild/obj/background_21.rel
                                          [ background_21 ]
C:/Users/iwaza/AppData/Local/Temp/_gbsbuild/obj/background_22.rel
                                          [ background_22 ]
C:/Users/iwaza/AppData/Local/Temp/_gbsbuild/obj/background_23.rel
                                          [ background_23 ]
C:/Users/iwaza/AppData/Local/Temp/_gbsbuild/obj/background_24.rel
                                          [ background_24 ]
C:/Users/iwaza/AppData/Local/Temp/_gbsbuild/obj/background_25.rel
                                          [ background_25 ]
C:/Users/iwaza/AppData/Local/Temp/_gbsbuild/obj/background_26.rel
                                          [ background_26 ]
C:/Users/iwaza/AppData/Local/Temp/_gbsbuild/obj/background_27.rel
                                          [ background_27 ]
C:/Users/iwaza/AppData/Local/Temp/_gbsbuild/obj/background_28.rel
                                          [ background_28 ]
C:/Users/iwaza/AppData/Local/Temp/_gbsbuild/obj/background_29.rel
                                          [ background_29 ]
C:/Users/iwaza/AppData/Local/Temp/_gbsbuild/obj/background_3.rel
                                          [ background_3 ]
C:/Users/iwaza/AppData/Local/Temp/_gbsbuild/obj/background_30.rel
                                          [ background_30 ]
C:/Users/iwaza/AppData/Local/Temp/_gbsbuild/obj/background_31.rel
                                          [ background_31 ]
C:/Users/iwaza/AppData/Local/Temp/_gbsbuild/obj/background_32.rel
                                          [ background_32 ]
C:/Users/iwaza/AppData/Local/Temp/_gbsbuild/obj/background_33.rel
                                          [ background_33 ]
C:/Users/iwaza/AppData/Local/Temp/_gbsbuild/obj/background_34.rel
                                          [ background_34 ]
C:/Users/iwaza/AppData/Local/Temp/_gbsbuild/obj/background_35.rel
                                          [ background_35 ]
C:/Users/iwaza/AppData/Local/Temp/_gbsbuild/obj/background_36.rel
                                          [ background_36 ]
C:/Users/iwaza/AppData/Local/Temp/_gbsbuild/obj/background_37.rel
                                          [ background_37 ]
C:/Users/iwaza/AppData/Local/Temp/_gbsbuild/obj/background_38.rel
                                          [ background_38 ]
C:/Users/iwaza/AppData/Local/Temp/_gbsbuild/obj/background_39.rel
                                          [ background_39 ]
C:/Users/iwaza/AppData/Local/Temp/_gbsbuild/obj/background_4.rel
                                          [ background_4 ]
C:/Users/iwaza/AppData/Local/Temp/_gbsbuild/obj/background_40.rel
                                          [ background_40 ]
C:/Users/iwaza/AppData/Local/Temp/_gbsbuild/obj/background_41.rel
                                          [ background_41 ]
C:/Users/iwaza/AppData/Local/Temp/_gbsbuild/obj/background_42.rel
                                          [ background_42 ]
C:/Users/iwaza/AppData/Local/Temp/_gbsbuild/obj/background_43.rel
                                          [ background_43 ]
C:/Users/iwaza/AppData/Local/Temp/_gbsbuild/obj/background_44.rel
                                          [ background_44 ]
C:/Users/iwaza/AppData/Local/Temp/_gbsbuild/obj/background_45.rel
                                          [ background_45 ]
C:/Users/iwaza/AppData/Local/Temp/_gbsbuild/obj/background_46.rel
                                          [ background_46 ]
C:/Users/iwaza/AppData/Local/Temp/_gbsbuild/obj/background_47.rel
                                          [ background_47 ]
C:/Users/iwaza/AppData/Local/Temp/_gbsbuild/obj/background_48.rel
                                          [ background_48 ]
C:/Users/iwaza/AppData/Local/Temp/_gbsbuild/obj/background_49.rel
                                          [ background_49 ]
C:/Users/iwaza/AppData/Local/Temp/_gbsbuild/obj/background_5.rel
                                          [ background_5 ]
C:/Users/iwaza/AppData/Local/Temp/_gbsbuild/obj/background_50.rel
                                          [ background_50 ]
C:/Users/iwaza/AppData/Local/Temp/_gbsbuild/obj/background_51.rel
                                          [ background_51 ]
C:/Users/iwaza/AppData/Local/Temp/_gbsbuild/obj/background_52.rel
                                          [ background_52 ]
C:/Users/iwaza/AppData/Local/Temp/_gbsbuild/obj/background_53.rel
                                          [ background_53 ]
C:/Users/iwaza/AppData/Local/Temp/_gbsbuild/obj/background_54.rel
                                          [ background_54 ]
C:/Users/iwaza/AppData/Local/Temp/_gbsbuild/obj/background_55.rel
                                          [ background_55 ]
C:/Users/iwaza/AppData/Local/Temp/_gbsbuild/obj/background_56.rel
                                          [ background_56 ]
C:/Users/iwaza/AppData/Local/Temp/_gbsbuild/obj/background_57.rel
                                          [ background_57 ]
C:/Users/iwaza/AppData/Local/Temp/_gbsbuild/obj/background_58.rel
                                          [ background_58 ]
C:/Users/iwaza/AppData/Local/Temp/_gbsbuild/obj/background_59.rel
                                          [ background_59 ]
C:/Users/iwaza/AppData/Local/Temp/_gbsbuild/obj/background_6.rel
                                          [ background_6 ]
C:/Users/iwaza/AppData/Local/Temp/_gbsbuild/obj/background_60.rel
                                          [ background_60 ]
C:/Users/iwaza/AppData/Local/Temp/_gbsbuild/obj/background_61.rel
                                          [ background_61 ]
C:/Users/iwaza/AppData/Local/Temp/_gbsbuild/obj/background_62.rel
                                          [ background_62 ]
C:/Users/iwaza/AppData/Local/Temp/_gbsbuild/obj/background_63.rel
                                          [ background_63 ]
C:/Users/iwaza/AppData/Local/Temp/_gbsbuild/obj/background_64.rel
                                          [ background_64 ]
C:/Users/iwaza/AppData/Local/Temp/_gbsbuild/obj/background_65.rel
                                          [ background_65 ]
C:/Users/iwaza/AppData/Local/Temp/_gbsbuild/obj/background_66.rel
                                          [ background_66 ]
C:/Users/iwaza/AppData/Local/Temp/_gbsbuild/obj/background_67.rel
                                          [ background_67 ]
C:/Users/iwaza/AppData/Local/Temp/_gbsbuild/obj/background_68.rel
                                          [ background_68 ]
C:/Users/iwaza/AppData/Local/Temp/_gbsbuild/obj/background_69.rel
                                          [ background_69 ]
C:/Users/iwaza/AppData/Local/Temp/_gbsbuild/obj/background_7.rel
                                          [ background_7 ]
C:/Users/iwaza/AppData/Local/Temp/_gbsbuild/obj/background_70.rel
                                          [ background_70 ]
C:/Users/iwaza/AppData/Local/Temp/_gbsbuild/obj/background_71.rel
                                          [ background_71 ]
C:/Users/iwaza/AppData/Local/Temp/_gbsbuild/obj/background_72.rel
                                          [ background_72 ]
C:/Users/iwaza/AppData/Local/Temp/_gbsbuild/obj/background_73.rel
                                          [ background_73 ]
C:/Users/iwaza/AppData/Local/Temp/_gbsbuild/obj/background_74.rel
                                          [ background_74 ]
C:/Users/iwaza/AppData/Local/Temp/_gbsbuild/obj/background_75.rel
                                          [ background_75 ]
C:/Users/iwaza/AppData/Local/Temp/_gbsbuild/obj/background_76.rel
                                          [ background_76 ]
C:/Users/iwaza/AppData/Local/Temp/_gbsbuild/obj/background_77.rel
                                          [ background_77 ]
C:/Users/iwaza/AppData/Local/Temp/_gbsbuild/obj/background_78.rel
                                          [ background_78 ]
C:/Users/iwaza/AppData/Local/Temp/_gbsbuild/obj/background_79.rel
                                          [ background_79 ]
C:/Users/iwaza/AppData/Local/Temp/_gbsbuild/obj/background_8.rel
                                          [ background_8 ]
C:/Users/iwaza/AppData/Local/Temp/_gbsbuild/obj/background_80.rel
                                          [ background_80 ]
C:/Users/iwaza/AppData/Local/Temp/_gbsbuild/obj/background_81.rel
                                          [ background_81 ]
C:/Users/iwaza/AppData/Local/Temp/_gbsbuild/obj/background_82.rel
                                          [ background_82 ]
C:/Users/iwaza/AppData/Local/Temp/_gbsbuild/obj/background_83.rel
                                          [ background_83 ]
C:/Users/iwaza/AppData/Local/Temp/_gbsbuild/obj/background_84.rel
                                          [ background_84 ]
C:/Users/iwaza/AppData/Local/Temp/_gbsbuild/obj/background_85.rel
                                          [ background_85 ]
C:/Users/iwaza/AppData/Local/Temp/_gbsbuild/obj/background_86.rel
                                          [ background_86 ]
C:/Users/iwaza/AppData/Local/Temp/_gbsbuild/obj/background_87.rel
                                          [ background_87 ]
C:/Users/iwaza/AppData/Local/Temp/_gbsbuild/obj/background_88.rel
                                          [ background_88 ]
C:/Users/iwaza/AppData/Local/Temp/_gbsbuild/obj/background_89.rel
                                          [ background_89 ]
C:/Users/iwaza/AppData/Local/Temp/_gbsbuild/obj/background_9.rel
                                          [ background_9 ]
C:/Users/iwaza/AppData/Local/Temp/_gbsbuild/obj/background_90.rel
                                          [ background_90 ]
C:/Users/iwaza/AppData/Local/Temp/_gbsbuild/obj/background_91.rel
                                          [ background_91 ]
C:/Users/iwaza/AppData/Local/Temp/_gbsbuild/obj/background_92.rel
                                          [ background_92 ]
C:/Users/iwaza/AppData/Local/Temp/_gbsbuild/obj/background_93.rel
                                          [ background_93 ]
C:/Users/iwaza/AppData/Local/Temp/_gbsbuild/obj/background_94.rel
                                          [ background_94 ]
C:/Users/iwaza/AppData/Local/Temp/_gbsbuild/obj/background_95.rel
                                          [ background_95 ]
C:/Users/iwaza/AppData/Local/Temp/_gbsbuild/obj/background_96.rel
                                          [ background_96 ]
C:/Users/iwaza/AppData/Local/Temp/_gbsbuild/obj/background_97.rel
                                          [ background_97 ]
C:/Users/iwaza/AppData/Local/Temp/_gbsbuild/obj/background_98.rel
                                          [ background_98 ]
C:/Users/iwaza/AppData/Local/Temp/_gbsbuild/obj/background_99.rel
                                          [ background_99 ]
C:/Users/iwaza/AppData/Local/Temp/_gbsbuild/obj/cursor_image.rel
                                          [ cursor_image ]
C:/Users/iwaza/AppData/Local/Temp/_gbsbuild/obj/font_0.rel
                                          [ font_0 ]
C:/Users/iwaza/AppData/Local/Temp/_gbsbuild/obj/frame_image.rel
                                          [ frame_image ]
C:/Users/iwaza/AppData/Local/Temp/_gbsbuild/obj/palette_0.rel
                                          [ palette_0 ]
C:/Users/iwaza/AppData/Local/Temp/_gbsbuild/obj/palette_1.rel
                                          [ palette_1 ]
C:/Users/iwaza/AppData/Local/Temp/_gbsbuild/obj/scene_0_collisions.rel
                                          [ scene_0_collisions ]
C:/Users/iwaza/AppData/Local/Temp/_gbsbuild/obj/scene_0.rel
                                          [ scene_0 ]
C:/Users/iwaza/AppData/Local/Temp/_gbsbuild/obj/scene_1_collisions.rel
                                          [ scene_1_collisions ]
C:/Users/iwaza/AppData/Local/Temp/_gbsbuild/obj/scene_1.rel
                                          [ scene_1 ]
C:/Users/iwaza/AppData/Local/Temp/_gbsbuild/obj/scene_10_actors.rel
                                          [ scene_10_actors ]
C:/Users/iwaza/AppData/Local/Temp/_gbsbuild/obj/scene_10_collisions.rel
                                          [ scene_10_collisions ]
C:/Users/iwaza/AppData/Local/Temp/_gbsbuild/obj/scene_10_sprites.rel
                                          [ scene_10_sprites ]
C:/Users/iwaza/AppData/Local/Temp/_gbsbuild/obj/scene_10_triggers.rel
                                          [ scene_10_triggers ]
C:/Users/iwaza/AppData/Local/Temp/_gbsbuild/obj/scene_10.rel
                                          [ scene_10 ]
C:/Users/iwaza/AppData/Local/Temp/_gbsbuild/obj/scene_100_collisions.rel
                                          [ scene_100_collisions ]
C:/Users/iwaza/AppData/Local/Temp/_gbsbuild/obj/scene_100.rel
                                          [ scene_100 ]
C:/Users/iwaza/AppData/Local/Temp/_gbsbuild/obj/scene_101_actors.rel
                                          [ scene_101_actors ]
C:/Users/iwaza/AppData/Local/Temp/_gbsbuild/obj/scene_101_collisions.rel
                                          [ scene_101_collisions ]
C:/Users/iwaza/AppData/Local/Temp/_gbsbuild/obj/scene_101_sprites.rel
                                          [ scene_101_sprites ]
C:/Users/iwaza/AppData/Local/Temp/_gbsbuild/obj/scene_101.rel
                                          [ scene_101 ]
C:/Users/iwaza/AppData/Local/Temp/_gbsbuild/obj/scene_102_collisions.rel
                                          [ scene_102_collisions ]
C:/Users/iwaza/AppData/Local/Temp/_gbsbuild/obj/scene_102_triggers.rel
                                          [ scene_102_triggers ]
C:/Users/iwaza/AppData/Local/Temp/_gbsbuild/obj/scene_102.rel
                                          [ scene_102 ]
C:/Users/iwaza/AppData/Local/Temp/_gbsbuild/obj/scene_103_collisions.rel
                                          [ scene_103_collisions ]
C:/Users/iwaza/AppData/Local/Temp/_gbsbuild/obj/scene_103_triggers.rel
                                          [ scene_103_triggers ]
C:/Users/iwaza/AppData/Local/Temp/_gbsbuild/obj/scene_103.rel
                                          [ scene_103 ]
C:/Users/iwaza/AppData/Local/Temp/_gbsbuild/obj/scene_104_actors.rel
                                          [ scene_104_actors ]
C:/Users/iwaza/AppData/Local/Temp/_gbsbuild/obj/scene_104_collisions.rel
                                          [ scene_104_collisions ]
C:/Users/iwaza/AppData/Local/Temp/_gbsbuild/obj/scene_104_sprites.rel
                                          [ scene_104_sprites ]
C:/Users/iwaza/AppData/Local/Temp/_gbsbuild/obj/scene_104_triggers.rel
                                          [ scene_104_triggers ]
C:/Users/iwaza/AppData/Local/Temp/_gbsbuild/obj/scene_104.rel
                                          [ scene_104 ]
C:/Users/iwaza/AppData/Local/Temp/_gbsbuild/obj/scene_105_collisions.rel
                                          [ scene_105_collisions ]
C:/Users/iwaza/AppData/Local/Temp/_gbsbuild/obj/scene_105_triggers.rel
                                          [ scene_105_triggers ]
C:/Users/iwaza/AppData/Local/Temp/_gbsbuild/obj/scene_105.rel
                                          [ scene_105 ]
C:/Users/iwaza/AppData/Local/Temp/_gbsbuild/obj/scene_106_actors.rel
                                          [ scene_106_actors ]
C:/Users/iwaza/AppData/Local/Temp/_gbsbuild/obj/scene_106_collisions.rel
                                          [ scene_106_collisions ]
C:/Users/iwaza/AppData/Local/Temp/_gbsbuild/obj/scene_106_sprites.rel
                                          [ scene_106_sprites ]
C:/Users/iwaza/AppData/Local/Temp/_gbsbuild/obj/scene_106.rel
                                          [ scene_106 ]
C:/Users/iwaza/AppData/Local/Temp/_gbsbuild/obj/scene_107_actors.rel
                                          [ scene_107_actors ]
C:/Users/iwaza/AppData/Local/Temp/_gbsbuild/obj/scene_107_collisions.rel
                                          [ scene_107_collisions ]
C:/Users/iwaza/AppData/Local/Temp/_gbsbuild/obj/scene_107_sprites.rel
                                          [ scene_107_sprites ]
C:/Users/iwaza/AppData/Local/Temp/_gbsbuild/obj/scene_107.rel
                                          [ scene_107 ]
C:/Users/iwaza/AppData/Local/Temp/_gbsbuild/obj/scene_108_collisions.rel
                                          [ scene_108_collisions ]
C:/Users/iwaza/AppData/Local/Temp/_gbsbuild/obj/scene_108_triggers.rel
                                          [ scene_108_triggers ]
C:/Users/iwaza/AppData/Local/Temp/_gbsbuild/obj/scene_108.rel
                                          [ scene_108 ]
C:/Users/iwaza/AppData/Local/Temp/_gbsbuild/obj/scene_109_collisions.rel
                                          [ scene_109_collisions ]
C:/Users/iwaza/AppData/Local/Temp/_gbsbuild/obj/scene_109_triggers.rel
                                          [ scene_109_triggers ]
C:/Users/iwaza/AppData/Local/Temp/_gbsbuild/obj/scene_109.rel
                                          [ scene_109 ]
C:/Users/iwaza/AppData/Local/Temp/_gbsbuild/obj/scene_11_actors.rel
                                          [ scene_11_actors ]
C:/Users/iwaza/AppData/Local/Temp/_gbsbuild/obj/scene_11_collisions.rel
                                          [ scene_11_collisions ]
C:/Users/iwaza/AppData/Local/Temp/_gbsbuild/obj/scene_11_sprites.rel
                                          [ scene_11_sprites ]
C:/Users/iwaza/AppData/Local/Temp/_gbsbuild/obj/scene_11_triggers.rel
                                          [ scene_11_triggers ]
C:/Users/iwaza/AppData/Local/Temp/_gbsbuild/obj/scene_11.rel
                                          [ scene_11 ]
C:/Users/iwaza/AppData/Local/Temp/_gbsbuild/obj/scene_110_actors.rel
                                          [ scene_110_actors ]
C:/Users/iwaza/AppData/Local/Temp/_gbsbuild/obj/scene_110_collisions.rel
                                          [ scene_110_collisions ]
C:/Users/iwaza/AppData/Local/Temp/_gbsbuild/obj/scene_110_sprites.rel
                                          [ scene_110_sprites ]
C:/Users/iwaza/AppData/Local/Temp/_gbsbuild/obj/scene_110_triggers.rel
                                          [ scene_110_triggers ]
C:/Users/iwaza/AppData/Local/Temp/_gbsbuild/obj/scene_110.rel
                                          [ scene_110 ]
C:/Users/iwaza/AppData/Local/Temp/_gbsbuild/obj/scene_111_collisions.rel
                                          [ scene_111_collisions ]
C:/Users/iwaza/AppData/Local/Temp/_gbsbuild/obj/scene_111_triggers.rel
                                          [ scene_111_triggers ]
C:/Users/iwaza/AppData/Local/Temp/_gbsbuild/obj/scene_111.rel
                                          [ scene_111 ]
C:/Users/iwaza/AppData/Local/Temp/_gbsbuild/obj/scene_112_actors.rel
                                          [ scene_112_actors ]
C:/Users/iwaza/AppData/Local/Temp/_gbsbuild/obj/scene_112_collisions.rel
                                          [ scene_112_collisions ]
C:/Users/iwaza/AppData/Local/Temp/_gbsbuild/obj/scene_112_sprites.rel
                                          [ scene_112_sprites ]
C:/Users/iwaza/AppData/Local/Temp/_gbsbuild/obj/scene_112.rel
                                          [ scene_112 ]
C:/Users/iwaza/AppData/Local/Temp/_gbsbuild/obj/scene_113_collisions.rel
                                          [ scene_113_collisions ]
C:/Users/iwaza/AppData/Local/Temp/_gbsbuild/obj/scene_113.rel
                                          [ scene_113 ]
C:/Users/iwaza/AppData/Local/Temp/_gbsbuild/obj/scene_114_actors.rel
                                          [ scene_114_actors ]
C:/Users/iwaza/AppData/Local/Temp/_gbsbuild/obj/scene_114_collisions.rel
                                          [ scene_114_collisions ]
C:/Users/iwaza/AppData/Local/Temp/_gbsbuild/obj/scene_114_sprites.rel
                                          [ scene_114_sprites ]
C:/Users/iwaza/AppData/Local/Temp/_gbsbuild/obj/scene_114.rel
                                          [ scene_114 ]
C:/Users/iwaza/AppData/Local/Temp/_gbsbuild/obj/scene_115_actors.rel
                                          [ scene_115_actors ]
C:/Users/iwaza/AppData/Local/Temp/_gbsbuild/obj/scene_115_collisions.rel
                                          [ scene_115_collisions ]
C:/Users/iwaza/AppData/Local/Temp/_gbsbuild/obj/scene_115_sprites.rel
                                          [ scene_115_sprites ]
C:/Users/iwaza/AppData/Local/Temp/_gbsbuild/obj/scene_115.rel
                                          [ scene_115 ]
C:/Users/iwaza/AppData/Local/Temp/_gbsbuild/obj/scene_116_actors.rel
                                          [ scene_116_actors ]
C:/Users/iwaza/AppData/Local/Temp/_gbsbuild/obj/scene_116_collisions.rel
                                          [ scene_116_collisions ]
C:/Users/iwaza/AppData/Local/Temp/_gbsbuild/obj/scene_116_sprites.rel
                                          [ scene_116_sprites ]
C:/Users/iwaza/AppData/Local/Temp/_gbsbuild/obj/scene_116.rel
                                          [ scene_116 ]
C:/Users/iwaza/AppData/Local/Temp/_gbsbuild/obj/scene_117_collisions.rel
                                          [ scene_117_collisions ]
C:/Users/iwaza/AppData/Local/Temp/_gbsbuild/obj/scene_117_triggers.rel
                                          [ scene_117_triggers ]
C:/Users/iwaza/AppData/Local/Temp/_gbsbuild/obj/scene_117.rel
                                          [ scene_117 ]
C:/Users/iwaza/AppData/Local/Temp/_gbsbuild/obj/scene_118_collisions.rel
                                          [ scene_118_collisions ]
C:/Users/iwaza/AppData/Local/Temp/_gbsbuild/obj/scene_118_triggers.rel
                                          [ scene_118_triggers ]
C:/Users/iwaza/AppData/Local/Temp/_gbsbuild/obj/scene_118.rel
                                          [ scene_118 ]
C:/Users/iwaza/AppData/Local/Temp/_gbsbuild/obj/scene_119_collisions.rel
                                          [ scene_119_collisions ]
C:/Users/iwaza/AppData/Local/Temp/_gbsbuild/obj/scene_119_triggers.rel
                                          [ scene_119_triggers ]
C:/Users/iwaza/AppData/Local/Temp/_gbsbuild/obj/scene_119.rel
                                          [ scene_119 ]
C:/Users/iwaza/AppData/Local/Temp/_gbsbuild/obj/scene_12_actors.rel
                                          [ scene_12_actors ]
C:/Users/iwaza/AppData/Local/Temp/_gbsbuild/obj/scene_12_collisions.rel
                                          [ scene_12_collisions ]
C:/Users/iwaza/AppData/Local/Temp/_gbsbuild/obj/scene_12_sprites.rel
                                          [ scene_12_sprites ]
C:/Users/iwaza/AppData/Local/Temp/_gbsbuild/obj/scene_12_triggers.rel
                                          [ scene_12_triggers ]
C:/Users/iwaza/AppData/Local/Temp/_gbsbuild/obj/scene_12.rel
                                          [ scene_12 ]
C:/Users/iwaza/AppData/Local/Temp/_gbsbuild/obj/scene_120_actors.rel
                                          [ scene_120_actors ]
C:/Users/iwaza/AppData/Local/Temp/_gbsbuild/obj/scene_120_collisions.rel
                                          [ scene_120_collisions ]
C:/Users/iwaza/AppData/Local/Temp/_gbsbuild/obj/scene_120_sprites.rel
                                          [ scene_120_sprites ]
C:/Users/iwaza/AppData/Local/Temp/_gbsbuild/obj/scene_120.rel
                                          [ scene_120 ]
C:/Users/iwaza/AppData/Local/Temp/_gbsbuild/obj/scene_121_collisions.rel
                                          [ scene_121_collisions ]
C:/Users/iwaza/AppData/Local/Temp/_gbsbuild/obj/scene_121.rel
                                          [ scene_121 ]
C:/Users/iwaza/AppData/Local/Temp/_gbsbuild/obj/scene_122_collisions.rel
                                          [ scene_122_collisions ]
C:/Users/iwaza/AppData/Local/Temp/_gbsbuild/obj/scene_122.rel
                                          [ scene_122 ]
C:/Users/iwaza/AppData/Local/Temp/_gbsbuild/obj/scene_123_actors.rel
                                          [ scene_123_actors ]
C:/Users/iwaza/AppData/Local/Temp/_gbsbuild/obj/scene_123_collisions.rel
                                          [ scene_123_collisions ]
C:/Users/iwaza/AppData/Local/Temp/_gbsbuild/obj/scene_123_sprites.rel
                                          [ scene_123_sprites ]
C:/Users/iwaza/AppData/Local/Temp/_gbsbuild/obj/scene_123.rel
                                          [ scene_123 ]
C:/Users/iwaza/AppData/Local/Temp/_gbsbuild/obj/scene_124_collisions.rel
                                          [ scene_124_collisions ]
C:/Users/iwaza/AppData/Local/Temp/_gbsbuild/obj/scene_124.rel
                                          [ scene_124 ]
C:/Users/iwaza/AppData/Local/Temp/_gbsbuild/obj/scene_125_collisions.rel
                                          [ scene_125_collisions ]
C:/Users/iwaza/AppData/Local/Temp/_gbsbuild/obj/scene_125.rel
                                          [ scene_125 ]
C:/Users/iwaza/AppData/Local/Temp/_gbsbuild/obj/scene_126_collisions.rel
                                          [ scene_126_collisions ]
C:/Users/iwaza/AppData/Local/Temp/_gbsbuild/obj/scene_126.rel
                                          [ scene_126 ]
C:/Users/iwaza/AppData/Local/Temp/_gbsbuild/obj/scene_127_collisions.rel
                                          [ scene_127_collisions ]
C:/Users/iwaza/AppData/Local/Temp/_gbsbuild/obj/scene_127.rel
                                          [ scene_127 ]
C:/Users/iwaza/AppData/Local/Temp/_gbsbuild/obj/scene_128_collisions.rel
                                          [ scene_128_collisions ]
C:/Users/iwaza/AppData/Local/Temp/_gbsbuild/obj/scene_128.rel
                                          [ scene_128 ]
C:/Users/iwaza/AppData/Local/Temp/_gbsbuild/obj/scene_129_actors.rel
                                          [ scene_129_actors ]
C:/Users/iwaza/AppData/Local/Temp/_gbsbuild/obj/scene_129_collisions.rel
                                          [ scene_129_collisions ]
C:/Users/iwaza/AppData/Local/Temp/_gbsbuild/obj/scene_129_sprites.rel
                                          [ scene_129_sprites ]
C:/Users/iwaza/AppData/Local/Temp/_gbsbuild/obj/scene_129.rel
                                          [ scene_129 ]
C:/Users/iwaza/AppData/Local/Temp/_gbsbuild/obj/scene_13_actors.rel
                                          [ scene_13_actors ]
C:/Users/iwaza/AppData/Local/Temp/_gbsbuild/obj/scene_13_collisions.rel
                                          [ scene_13_collisions ]
C:/Users/iwaza/AppData/Local/Temp/_gbsbuild/obj/scene_13_sprites.rel
                                          [ scene_13_sprites ]
C:/Users/iwaza/AppData/Local/Temp/_gbsbuild/obj/scene_13_triggers.rel
                                          [ scene_13_triggers ]
C:/Users/iwaza/AppData/Local/Temp/_gbsbuild/obj/scene_13.rel
                                          [ scene_13 ]
C:/Users/iwaza/AppData/Local/Temp/_gbsbuild/obj/scene_130_actors.rel
                                          [ scene_130_actors ]
C:/Users/iwaza/AppData/Local/Temp/_gbsbuild/obj/scene_130_collisions.rel
                                          [ scene_130_collisions ]
C:/Users/iwaza/AppData/Local/Temp/_gbsbuild/obj/scene_130_sprites.rel
                                          [ scene_130_sprites ]
C:/Users/iwaza/AppData/Local/Temp/_gbsbuild/obj/scene_130.rel
                                          [ scene_130 ]
C:/Users/iwaza/AppData/Local/Temp/_gbsbuild/obj/scene_131_collisions.rel
                                          [ scene_131_collisions ]
C:/Users/iwaza/AppData/Local/Temp/_gbsbuild/obj/scene_131.rel
                                          [ scene_131 ]
C:/Users/iwaza/AppData/Local/Temp/_gbsbuild/obj/scene_132_collisions.rel
                                          [ scene_132_collisions ]
C:/Users/iwaza/AppData/Local/Temp/_gbsbuild/obj/scene_132.rel
                                          [ scene_132 ]
C:/Users/iwaza/AppData/Local/Temp/_gbsbuild/obj/scene_133_collisions.rel
                                          [ scene_133_collisions ]
C:/Users/iwaza/AppData/Local/Temp/_gbsbuild/obj/scene_133.rel
                                          [ scene_133 ]
C:/Users/iwaza/AppData/Local/Temp/_gbsbuild/obj/scene_134_collisions.rel
                                          [ scene_134_collisions ]
C:/Users/iwaza/AppData/Local/Temp/_gbsbuild/obj/scene_134.rel
                                          [ scene_134 ]
C:/Users/iwaza/AppData/Local/Temp/_gbsbuild/obj/scene_135_collisions.rel
                                          [ scene_135_collisions ]
C:/Users/iwaza/AppData/Local/Temp/_gbsbuild/obj/scene_135.rel
                                          [ scene_135 ]
C:/Users/iwaza/AppData/Local/Temp/_gbsbuild/obj/scene_136_collisions.rel
                                          [ scene_136_collisions ]
C:/Users/iwaza/AppData/Local/Temp/_gbsbuild/obj/scene_136.rel
                                          [ scene_136 ]
C:/Users/iwaza/AppData/Local/Temp/_gbsbuild/obj/scene_137_collisions.rel
                                          [ scene_137_collisions ]
C:/Users/iwaza/AppData/Local/Temp/_gbsbuild/obj/scene_137.rel
                                          [ scene_137 ]
C:/Users/iwaza/AppData/Local/Temp/_gbsbuild/obj/scene_138_collisions.rel
                                          [ scene_138_collisions ]
C:/Users/iwaza/AppData/Local/Temp/_gbsbuild/obj/scene_138.rel
                                          [ scene_138 ]
C:/Users/iwaza/AppData/Local/Temp/_gbsbuild/obj/scene_139_collisions.rel
                                          [ scene_139_collisions ]
C:/Users/iwaza/AppData/Local/Temp/_gbsbuild/obj/scene_139.rel
                                          [ scene_139 ]
C:/Users/iwaza/AppData/Local/Temp/_gbsbuild/obj/scene_14_actors.rel
                                          [ scene_14_actors ]
C:/Users/iwaza/AppData/Local/Temp/_gbsbuild/obj/scene_14_collisions.rel
                                          [ scene_14_collisions ]
C:/Users/iwaza/AppData/Local/Temp/_gbsbuild/obj/scene_14_sprites.rel
                                          [ scene_14_sprites ]
C:/Users/iwaza/AppData/Local/Temp/_gbsbuild/obj/scene_14_triggers.rel
                                          [ scene_14_triggers ]
C:/Users/iwaza/AppData/Local/Temp/_gbsbuild/obj/scene_14.rel
                                          [ scene_14 ]
C:/Users/iwaza/AppData/Local/Temp/_gbsbuild/obj/scene_140_collisions.rel
                                          [ scene_140_collisions ]
C:/Users/iwaza/AppData/Local/Temp/_gbsbuild/obj/scene_140.rel
                                          [ scene_140 ]
C:/Users/iwaza/AppData/Local/Temp/_gbsbuild/obj/scene_141_collisions.rel
                                          [ scene_141_collisions ]
C:/Users/iwaza/AppData/Local/Temp/_gbsbuild/obj/scene_141.rel
                                          [ scene_141 ]
C:/Users/iwaza/AppData/Local/Temp/_gbsbuild/obj/scene_142_collisions.rel
                                          [ scene_142_collisions ]
C:/Users/iwaza/AppData/Local/Temp/_gbsbuild/obj/scene_142.rel
                                          [ scene_142 ]
C:/Users/iwaza/AppData/Local/Temp/_gbsbuild/obj/scene_143_collisions.rel
                                          [ scene_143_collisions ]
C:/Users/iwaza/AppData/Local/Temp/_gbsbuild/obj/scene_143.rel
                                          [ scene_143 ]
C:/Users/iwaza/AppData/Local/Temp/_gbsbuild/obj/scene_144_collisions.rel
                                          [ scene_144_collisions ]
C:/Users/iwaza/AppData/Local/Temp/_gbsbuild/obj/scene_144.rel
                                          [ scene_144 ]
C:/Users/iwaza/AppData/Local/Temp/_gbsbuild/obj/scene_145_collisions.rel
                                          [ scene_145_collisions ]
C:/Users/iwaza/AppData/Local/Temp/_gbsbuild/obj/scene_145.rel
                                          [ scene_145 ]
C:/Users/iwaza/AppData/Local/Temp/_gbsbuild/obj/scene_15_actors.rel
                                          [ scene_15_actors ]
C:/Users/iwaza/AppData/Local/Temp/_gbsbuild/obj/scene_15_collisions.rel
                                          [ scene_15_collisions ]
C:/Users/iwaza/AppData/Local/Temp/_gbsbuild/obj/scene_15_sprites.rel
                                          [ scene_15_sprites ]
C:/Users/iwaza/AppData/Local/Temp/_gbsbuild/obj/scene_15_triggers.rel
                                          [ scene_15_triggers ]
C:/Users/iwaza/AppData/Local/Temp/_gbsbuild/obj/scene_15.rel
                                          [ scene_15 ]
C:/Users/iwaza/AppData/Local/Temp/_gbsbuild/obj/scene_16_actors.rel
                                          [ scene_16_actors ]
C:/Users/iwaza/AppData/Local/Temp/_gbsbuild/obj/scene_16_collisions.rel
                                          [ scene_16_collisions ]
C:/Users/iwaza/AppData/Local/Temp/_gbsbuild/obj/scene_16_sprites.rel
                                          [ scene_16_sprites ]
C:/Users/iwaza/AppData/Local/Temp/_gbsbuild/obj/scene_16_triggers.rel
                                          [ scene_16_triggers ]
C:/Users/iwaza/AppData/Local/Temp/_gbsbuild/obj/scene_16.rel
                                          [ scene_16 ]
C:/Users/iwaza/AppData/Local/Temp/_gbsbuild/obj/scene_17_actors.rel
                                          [ scene_17_actors ]
C:/Users/iwaza/AppData/Local/Temp/_gbsbuild/obj/scene_17_collisions.rel
                                          [ scene_17_collisions ]
C:/Users/iwaza/AppData/Local/Temp/_gbsbuild/obj/scene_17_sprites.rel
                                          [ scene_17_sprites ]
C:/Users/iwaza/AppData/Local/Temp/_gbsbuild/obj/scene_17_triggers.rel
                                          [ scene_17_triggers ]
C:/Users/iwaza/AppData/Local/Temp/_gbsbuild/obj/scene_17.rel
                                          [ scene_17 ]
C:/Users/iwaza/AppData/Local/Temp/_gbsbuild/obj/scene_18_actors.rel
                                          [ scene_18_actors ]
C:/Users/iwaza/AppData/Local/Temp/_gbsbuild/obj/scene_18_collisions.rel
                                          [ scene_18_collisions ]
C:/Users/iwaza/AppData/Local/Temp/_gbsbuild/obj/scene_18_sprites.rel
                                          [ scene_18_sprites ]
C:/Users/iwaza/AppData/Local/Temp/_gbsbuild/obj/scene_18_triggers.rel
                                          [ scene_18_triggers ]
C:/Users/iwaza/AppData/Local/Temp/_gbsbuild/obj/scene_18.rel
                                          [ scene_18 ]
C:/Users/iwaza/AppData/Local/Temp/_gbsbuild/obj/scene_19_actors.rel
                                          [ scene_19_actors ]
C:/Users/iwaza/AppData/Local/Temp/_gbsbuild/obj/scene_19_collisions.rel
                                          [ scene_19_collisions ]
C:/Users/iwaza/AppData/Local/Temp/_gbsbuild/obj/scene_19_sprites.rel
                                          [ scene_19_sprites ]
C:/Users/iwaza/AppData/Local/Temp/_gbsbuild/obj/scene_19_triggers.rel
                                          [ scene_19_triggers ]
C:/Users/iwaza/AppData/Local/Temp/_gbsbuild/obj/scene_19.rel
                                          [ scene_19 ]
C:/Users/iwaza/AppData/Local/Temp/_gbsbuild/obj/scene_2_collisions.rel
                                          [ scene_2_collisions ]
C:/Users/iwaza/AppData/Local/Temp/_gbsbuild/obj/scene_2_sprites.rel
                                          [ scene_2_sprites ]
C:/Users/iwaza/AppData/Local/Temp/_gbsbuild/obj/scene_2.rel
                                          [ scene_2 ]
C:/Users/iwaza/AppData/Local/Temp/_gbsbuild/obj/scene_20_actors.rel
                                          [ scene_20_actors ]
C:/Users/iwaza/AppData/Local/Temp/_gbsbuild/obj/scene_20_collisions.rel
                                          [ scene_20_collisions ]
C:/Users/iwaza/AppData/Local/Temp/_gbsbuild/obj/scene_20_sprites.rel
                                          [ scene_20_sprites ]
C:/Users/iwaza/AppData/Local/Temp/_gbsbuild/obj/scene_20_triggers.rel
                                          [ scene_20_triggers ]
C:/Users/iwaza/AppData/Local/Temp/_gbsbuild/obj/scene_20.rel
                                          [ scene_20 ]
C:/Users/iwaza/AppData/Local/Temp/_gbsbuild/obj/scene_21_actors.rel
                                          [ scene_21_actors ]
C:/Users/iwaza/AppData/Local/Temp/_gbsbuild/obj/scene_21_collisions.rel
                                          [ scene_21_collisions ]
C:/Users/iwaza/AppData/Local/Temp/_gbsbuild/obj/scene_21_sprites.rel
                                          [ scene_21_sprites ]
C:/Users/iwaza/AppData/Local/Temp/_gbsbuild/obj/scene_21_triggers.rel
                                          [ scene_21_triggers ]
C:/Users/iwaza/AppData/Local/Temp/_gbsbuild/obj/scene_21.rel
                                          [ scene_21 ]
C:/Users/iwaza/AppData/Local/Temp/_gbsbuild/obj/scene_22_collisions.rel
                                          [ scene_22_collisions ]
C:/Users/iwaza/AppData/Local/Temp/_gbsbuild/obj/scene_22_triggers.rel
                                          [ scene_22_triggers ]
C:/Users/iwaza/AppData/Local/Temp/_gbsbuild/obj/scene_22.rel
                                          [ scene_22 ]
C:/Users/iwaza/AppData/Local/Temp/_gbsbuild/obj/scene_23_collisions.rel
                                          [ scene_23_collisions ]
C:/Users/iwaza/AppData/Local/Temp/_gbsbuild/obj/scene_23_triggers.rel
                                          [ scene_23_triggers ]
C:/Users/iwaza/AppData/Local/Temp/_gbsbuild/obj/scene_23.rel
                                          [ scene_23 ]
C:/Users/iwaza/AppData/Local/Temp/_gbsbuild/obj/scene_24_collisions.rel
                                          [ scene_24_collisions ]
C:/Users/iwaza/AppData/Local/Temp/_gbsbuild/obj/scene_24_triggers.rel
                                          [ scene_24_triggers ]
C:/Users/iwaza/AppData/Local/Temp/_gbsbuild/obj/scene_24.rel
                                          [ scene_24 ]
C:/Users/iwaza/AppData/Local/Temp/_gbsbuild/obj/scene_25_collisions.rel
                                          [ scene_25_collisions ]
C:/Users/iwaza/AppData/Local/Temp/_gbsbuild/obj/scene_25_triggers.rel
                                          [ scene_25_triggers ]
C:/Users/iwaza/AppData/Local/Temp/_gbsbuild/obj/scene_25.rel
                                          [ scene_25 ]
C:/Users/iwaza/AppData/Local/Temp/_gbsbuild/obj/scene_26_collisions.rel
                                          [ scene_26_collisions ]
C:/Users/iwaza/AppData/Local/Temp/_gbsbuild/obj/scene_26_triggers.rel
                                          [ scene_26_triggers ]
C:/Users/iwaza/AppData/Local/Temp/_gbsbuild/obj/scene_26.rel
                                          [ scene_26 ]
C:/Users/iwaza/AppData/Local/Temp/_gbsbuild/obj/scene_27_collisions.rel
                                          [ scene_27_collisions ]
C:/Users/iwaza/AppData/Local/Temp/_gbsbuild/obj/scene_27_triggers.rel
                                          [ scene_27_triggers ]
C:/Users/iwaza/AppData/Local/Temp/_gbsbuild/obj/scene_27.rel
                                          [ scene_27 ]
C:/Users/iwaza/AppData/Local/Temp/_gbsbuild/obj/scene_28_collisions.rel
                                          [ scene_28_collisions ]
C:/Users/iwaza/AppData/Local/Temp/_gbsbuild/obj/scene_28_triggers.rel
                                          [ scene_28_triggers ]
C:/Users/iwaza/AppData/Local/Temp/_gbsbuild/obj/scene_28.rel
                                          [ scene_28 ]
C:/Users/iwaza/AppData/Local/Temp/_gbsbuild/obj/scene_29_collisions.rel
                                          [ scene_29_collisions ]
C:/Users/iwaza/AppData/Local/Temp/_gbsbuild/obj/scene_29_triggers.rel
                                          [ scene_29_triggers ]
C:/Users/iwaza/AppData/Local/Temp/_gbsbuild/obj/scene_29.rel
                                          [ scene_29 ]
C:/Users/iwaza/AppData/Local/Temp/_gbsbuild/obj/scene_3_collisions.rel
                                          [ scene_3_collisions ]
C:/Users/iwaza/AppData/Local/Temp/_gbsbuild/obj/scene_3.rel
                                          [ scene_3 ]
C:/Users/iwaza/AppData/Local/Temp/_gbsbuild/obj/scene_30_collisions.rel
                                          [ scene_30_collisions ]
C:/Users/iwaza/AppData/Local/Temp/_gbsbuild/obj/scene_30_triggers.rel
                                          [ scene_30_triggers ]
C:/Users/iwaza/AppData/Local/Temp/_gbsbuild/obj/scene_30.rel
                                          [ scene_30 ]
C:/Users/iwaza/AppData/Local/Temp/_gbsbuild/obj/scene_31_collisions.rel
                                          [ scene_31_collisions ]
C:/Users/iwaza/AppData/Local/Temp/_gbsbuild/obj/scene_31_triggers.rel
                                          [ scene_31_triggers ]
C:/Users/iwaza/AppData/Local/Temp/_gbsbuild/obj/scene_31.rel
                                          [ scene_31 ]
C:/Users/iwaza/AppData/Local/Temp/_gbsbuild/obj/scene_32_collisions.rel
                                          [ scene_32_collisions ]
C:/Users/iwaza/AppData/Local/Temp/_gbsbuild/obj/scene_32_triggers.rel
                                          [ scene_32_triggers ]
C:/Users/iwaza/AppData/Local/Temp/_gbsbuild/obj/scene_32.rel
                                          [ scene_32 ]
C:/Users/iwaza/AppData/Local/Temp/_gbsbuild/obj/scene_33_collisions.rel
                                          [ scene_33_collisions ]
C:/Users/iwaza/AppData/Local/Temp/_gbsbuild/obj/scene_33_triggers.rel
                                          [ scene_33_triggers ]
C:/Users/iwaza/AppData/Local/Temp/_gbsbuild/obj/scene_33.rel
                                          [ scene_33 ]
C:/Users/iwaza/AppData/Local/Temp/_gbsbuild/obj/scene_34_collisions.rel
                                          [ scene_34_collisions ]
C:/Users/iwaza/AppData/Local/Temp/_gbsbuild/obj/scene_34_triggers.rel
                                          [ scene_34_triggers ]
C:/Users/iwaza/AppData/Local/Temp/_gbsbuild/obj/scene_34.rel
                                          [ scene_34 ]
C:/Users/iwaza/AppData/Local/Temp/_gbsbuild/obj/scene_35_collisions.rel
                                          [ scene_35_collisions ]
C:/Users/iwaza/AppData/Local/Temp/_gbsbuild/obj/scene_35_triggers.rel
                                          [ scene_35_triggers ]
C:/Users/iwaza/AppData/Local/Temp/_gbsbuild/obj/scene_35.rel
                                          [ scene_35 ]
C:/Users/iwaza/AppData/Local/Temp/_gbsbuild/obj/scene_36_collisions.rel
                                          [ scene_36_collisions ]
C:/Users/iwaza/AppData/Local/Temp/_gbsbuild/obj/scene_36_triggers.rel
                                          [ scene_36_triggers ]
C:/Users/iwaza/AppData/Local/Temp/_gbsbuild/obj/scene_36.rel
                                          [ scene_36 ]
C:/Users/iwaza/AppData/Local/Temp/_gbsbuild/obj/scene_37_collisions.rel
                                          [ scene_37_collisions ]
C:/Users/iwaza/AppData/Local/Temp/_gbsbuild/obj/scene_37_triggers.rel
                                          [ scene_37_triggers ]
C:/Users/iwaza/AppData/Local/Temp/_gbsbuild/obj/scene_37.rel
                                          [ scene_37 ]
C:/Users/iwaza/AppData/Local/Temp/_gbsbuild/obj/scene_38_collisions.rel
                                          [ scene_38_collisions ]
C:/Users/iwaza/AppData/Local/Temp/_gbsbuild/obj/scene_38_triggers.rel
                                          [ scene_38_triggers ]
C:/Users/iwaza/AppData/Local/Temp/_gbsbuild/obj/scene_38.rel
                                          [ scene_38 ]
C:/Users/iwaza/AppData/Local/Temp/_gbsbuild/obj/scene_39_collisions.rel
                                          [ scene_39_collisions ]
C:/Users/iwaza/AppData/Local/Temp/_gbsbuild/obj/scene_39_triggers.rel
                                          [ scene_39_triggers ]
C:/Users/iwaza/AppData/Local/Temp/_gbsbuild/obj/scene_39.rel
                                          [ scene_39 ]
C:/Users/iwaza/AppData/Local/Temp/_gbsbuild/obj/scene_4_actors.rel
                                          [ scene_4_actors ]
C:/Users/iwaza/AppData/Local/Temp/_gbsbuild/obj/scene_4_collisions.rel
                                          [ scene_4_collisions ]
C:/Users/iwaza/AppData/Local/Temp/_gbsbuild/obj/scene_4_sprites.rel
                                          [ scene_4_sprites ]
C:/Users/iwaza/AppData/Local/Temp/_gbsbuild/obj/scene_4_triggers.rel
                                          [ scene_4_triggers ]
C:/Users/iwaza/AppData/Local/Temp/_gbsbuild/obj/scene_4.rel
                                          [ scene_4 ]
C:/Users/iwaza/AppData/Local/Temp/_gbsbuild/obj/scene_40_collisions.rel
                                          [ scene_40_collisions ]
C:/Users/iwaza/AppData/Local/Temp/_gbsbuild/obj/scene_40_triggers.rel
                                          [ scene_40_triggers ]
C:/Users/iwaza/AppData/Local/Temp/_gbsbuild/obj/scene_40.rel
                                          [ scene_40 ]
C:/Users/iwaza/AppData/Local/Temp/_gbsbuild/obj/scene_41_collisions.rel
                                          [ scene_41_collisions ]
C:/Users/iwaza/AppData/Local/Temp/_gbsbuild/obj/scene_41_triggers.rel
                                          [ scene_41_triggers ]
C:/Users/iwaza/AppData/Local/Temp/_gbsbuild/obj/scene_41.rel
                                          [ scene_41 ]
C:/Users/iwaza/AppData/Local/Temp/_gbsbuild/obj/scene_42_collisions.rel
                                          [ scene_42_collisions ]
C:/Users/iwaza/AppData/Local/Temp/_gbsbuild/obj/scene_42_triggers.rel
                                          [ scene_42_triggers ]
C:/Users/iwaza/AppData/Local/Temp/_gbsbuild/obj/scene_42.rel
                                          [ scene_42 ]
C:/Users/iwaza/AppData/Local/Temp/_gbsbuild/obj/scene_43_collisions.rel
                                          [ scene_43_collisions ]
C:/Users/iwaza/AppData/Local/Temp/_gbsbuild/obj/scene_43.rel
                                          [ scene_43 ]
C:/Users/iwaza/AppData/Local/Temp/_gbsbuild/obj/scene_44_collisions.rel
                                          [ scene_44_collisions ]
C:/Users/iwaza/AppData/Local/Temp/_gbsbuild/obj/scene_44.rel
                                          [ scene_44 ]
C:/Users/iwaza/AppData/Local/Temp/_gbsbuild/obj/scene_45_collisions.rel
                                          [ scene_45_collisions ]
C:/Users/iwaza/AppData/Local/Temp/_gbsbuild/obj/scene_45.rel
                                          [ scene_45 ]
C:/Users/iwaza/AppData/Local/Temp/_gbsbuild/obj/scene_46_collisions.rel
                                          [ scene_46_collisions ]
C:/Users/iwaza/AppData/Local/Temp/_gbsbuild/obj/scene_46.rel
                                          [ scene_46 ]
C:/Users/iwaza/AppData/Local/Temp/_gbsbuild/obj/scene_47_collisions.rel
                                          [ scene_47_collisions ]
C:/Users/iwaza/AppData/Local/Temp/_gbsbuild/obj/scene_47.rel
                                          [ scene_47 ]
C:/Users/iwaza/AppData/Local/Temp/_gbsbuild/obj/scene_48_collisions.rel
                                          [ scene_48_collisions ]
C:/Users/iwaza/AppData/Local/Temp/_gbsbuild/obj/scene_48.rel
                                          [ scene_48 ]
C:/Users/iwaza/AppData/Local/Temp/_gbsbuild/obj/scene_49_collisions.rel
                                          [ scene_49_collisions ]
C:/Users/iwaza/AppData/Local/Temp/_gbsbuild/obj/scene_49.rel
                                          [ scene_49 ]
C:/Users/iwaza/AppData/Local/Temp/_gbsbuild/obj/scene_5_actors.rel
                                          [ scene_5_actors ]
C:/Users/iwaza/AppData/Local/Temp/_gbsbuild/obj/scene_5_collisions.rel
                                          [ scene_5_collisions ]
C:/Users/iwaza/AppData/Local/Temp/_gbsbuild/obj/scene_5_sprites.rel
                                          [ scene_5_sprites ]
C:/Users/iwaza/AppData/Local/Temp/_gbsbuild/obj/scene_5_triggers.rel
                                          [ scene_5_triggers ]
C:/Users/iwaza/AppData/Local/Temp/_gbsbuild/obj/scene_5.rel
                                          [ scene_5 ]
C:/Users/iwaza/AppData/Local/Temp/_gbsbuild/obj/scene_50_collisions.rel
                                          [ scene_50_collisions ]
C:/Users/iwaza/AppData/Local/Temp/_gbsbuild/obj/scene_50.rel
                                          [ scene_50 ]
C:/Users/iwaza/AppData/Local/Temp/_gbsbuild/obj/scene_51_collisions.rel
                                          [ scene_51_collisions ]
C:/Users/iwaza/AppData/Local/Temp/_gbsbuild/obj/scene_51.rel
                                          [ scene_51 ]
C:/Users/iwaza/AppData/Local/Temp/_gbsbuild/obj/scene_52_collisions.rel
                                          [ scene_52_collisions ]
C:/Users/iwaza/AppData/Local/Temp/_gbsbuild/obj/scene_52.rel
                                          [ scene_52 ]
C:/Users/iwaza/AppData/Local/Temp/_gbsbuild/obj/scene_53_collisions.rel
                                          [ scene_53_collisions ]
C:/Users/iwaza/AppData/Local/Temp/_gbsbuild/obj/scene_53.rel
                                          [ scene_53 ]
C:/Users/iwaza/AppData/Local/Temp/_gbsbuild/obj/scene_54_collisions.rel
                                          [ scene_54_collisions ]
C:/Users/iwaza/AppData/Local/Temp/_gbsbuild/obj/scene_54.rel
                                          [ scene_54 ]
C:/Users/iwaza/AppData/Local/Temp/_gbsbuild/obj/scene_55_collisions.rel
                                          [ scene_55_collisions ]
C:/Users/iwaza/AppData/Local/Temp/_gbsbuild/obj/scene_55.rel
                                          [ scene_55 ]
C:/Users/iwaza/AppData/Local/Temp/_gbsbuild/obj/scene_56_collisions.rel
                                          [ scene_56_collisions ]
C:/Users/iwaza/AppData/Local/Temp/_gbsbuild/obj/scene_56.rel
                                          [ scene_56 ]
C:/Users/iwaza/AppData/Local/Temp/_gbsbuild/obj/scene_57_collisions.rel
                                          [ scene_57_collisions ]
C:/Users/iwaza/AppData/Local/Temp/_gbsbuild/obj/scene_57.rel
                                          [ scene_57 ]
C:/Users/iwaza/AppData/Local/Temp/_gbsbuild/obj/scene_58_collisions.rel
                                          [ scene_58_collisions ]
C:/Users/iwaza/AppData/Local/Temp/_gbsbuild/obj/scene_58.rel
                                          [ scene_58 ]
C:/Users/iwaza/AppData/Local/Temp/_gbsbuild/obj/scene_59_collisions.rel
                                          [ scene_59_collisions ]
C:/Users/iwaza/AppData/Local/Temp/_gbsbuild/obj/scene_59.rel
                                          [ scene_59 ]
C:/Users/iwaza/AppData/Local/Temp/_gbsbuild/obj/scene_6_actors.rel
                                          [ scene_6_actors ]
C:/Users/iwaza/AppData/Local/Temp/_gbsbuild/obj/scene_6_collisions.rel
                                          [ scene_6_collisions ]
C:/Users/iwaza/AppData/Local/Temp/_gbsbuild/obj/scene_6_sprites.rel
                                          [ scene_6_sprites ]
C:/Users/iwaza/AppData/Local/Temp/_gbsbuild/obj/scene_6_triggers.rel
                                          [ scene_6_triggers ]
C:/Users/iwaza/AppData/Local/Temp/_gbsbuild/obj/scene_6.rel
                                          [ scene_6 ]
C:/Users/iwaza/AppData/Local/Temp/_gbsbuild/obj/scene_60_collisions.rel
                                          [ scene_60_collisions ]
C:/Users/iwaza/AppData/Local/Temp/_gbsbuild/obj/scene_60.rel
                                          [ scene_60 ]
C:/Users/iwaza/AppData/Local/Temp/_gbsbuild/obj/scene_61_collisions.rel
                                          [ scene_61_collisions ]
C:/Users/iwaza/AppData/Local/Temp/_gbsbuild/obj/scene_61.rel
                                          [ scene_61 ]
C:/Users/iwaza/AppData/Local/Temp/_gbsbuild/obj/scene_62_collisions.rel
                                          [ scene_62_collisions ]
C:/Users/iwaza/AppData/Local/Temp/_gbsbuild/obj/scene_62.rel
                                          [ scene_62 ]
C:/Users/iwaza/AppData/Local/Temp/_gbsbuild/obj/scene_63_collisions.rel
                                          [ scene_63_collisions ]
C:/Users/iwaza/AppData/Local/Temp/_gbsbuild/obj/scene_63_triggers.rel
                                          [ scene_63_triggers ]
C:/Users/iwaza/AppData/Local/Temp/_gbsbuild/obj/scene_63.rel
                                          [ scene_63 ]
C:/Users/iwaza/AppData/Local/Temp/_gbsbuild/obj/scene_64_collisions.rel
                                          [ scene_64_collisions ]
C:/Users/iwaza/AppData/Local/Temp/_gbsbuild/obj/scene_64_triggers.rel
                                          [ scene_64_triggers ]
C:/Users/iwaza/AppData/Local/Temp/_gbsbuild/obj/scene_64.rel
                                          [ scene_64 ]
C:/Users/iwaza/AppData/Local/Temp/_gbsbuild/obj/scene_65_collisions.rel
                                          [ scene_65_collisions ]
C:/Users/iwaza/AppData/Local/Temp/_gbsbuild/obj/scene_65_triggers.rel
                                          [ scene_65_triggers ]
C:/Users/iwaza/AppData/Local/Temp/_gbsbuild/obj/scene_65.rel
                                          [ scene_65 ]
C:/Users/iwaza/AppData/Local/Temp/_gbsbuild/obj/scene_66_collisions.rel
                                          [ scene_66_collisions ]
C:/Users/iwaza/AppData/Local/Temp/_gbsbuild/obj/scene_66_triggers.rel
                                          [ scene_66_triggers ]
C:/Users/iwaza/AppData/Local/Temp/_gbsbuild/obj/scene_66.rel
                                          [ scene_66 ]
C:/Users/iwaza/AppData/Local/Temp/_gbsbuild/obj/scene_67_collisions.rel
                                          [ scene_67_collisions ]
C:/Users/iwaza/AppData/Local/Temp/_gbsbuild/obj/scene_67_triggers.rel
                                          [ scene_67_triggers ]
C:/Users/iwaza/AppData/Local/Temp/_gbsbuild/obj/scene_67.rel
                                          [ scene_67 ]
C:/Users/iwaza/AppData/Local/Temp/_gbsbuild/obj/scene_68_collisions.rel
                                          [ scene_68_collisions ]
C:/Users/iwaza/AppData/Local/Temp/_gbsbuild/obj/scene_68_triggers.rel
                                          [ scene_68_triggers ]
C:/Users/iwaza/AppData/Local/Temp/_gbsbuild/obj/scene_68.rel
                                          [ scene_68 ]
C:/Users/iwaza/AppData/Local/Temp/_gbsbuild/obj/scene_69_collisions.rel
                                          [ scene_69_collisions ]
C:/Users/iwaza/AppData/Local/Temp/_gbsbuild/obj/scene_69_triggers.rel
                                          [ scene_69_triggers ]
C:/Users/iwaza/AppData/Local/Temp/_gbsbuild/obj/scene_69.rel
                                          [ scene_69 ]
C:/Users/iwaza/AppData/Local/Temp/_gbsbuild/obj/scene_7_actors.rel
                                          [ scene_7_actors ]
C:/Users/iwaza/AppData/Local/Temp/_gbsbuild/obj/scene_7_collisions.rel
                                          [ scene_7_collisions ]
C:/Users/iwaza/AppData/Local/Temp/_gbsbuild/obj/scene_7_sprites.rel
                                          [ scene_7_sprites ]
C:/Users/iwaza/AppData/Local/Temp/_gbsbuild/obj/scene_7_triggers.rel
                                          [ scene_7_triggers ]
C:/Users/iwaza/AppData/Local/Temp/_gbsbuild/obj/scene_7.rel
                                          [ scene_7 ]
C:/Users/iwaza/AppData/Local/Temp/_gbsbuild/obj/scene_70_collisions.rel
                                          [ scene_70_collisions ]
C:/Users/iwaza/AppData/Local/Temp/_gbsbuild/obj/scene_70_triggers.rel
                                          [ scene_70_triggers ]
C:/Users/iwaza/AppData/Local/Temp/_gbsbuild/obj/scene_70.rel
                                          [ scene_70 ]
C:/Users/iwaza/AppData/Local/Temp/_gbsbuild/obj/scene_71_collisions.rel
                                          [ scene_71_collisions ]
C:/Users/iwaza/AppData/Local/Temp/_gbsbuild/obj/scene_71_triggers.rel
                                          [ scene_71_triggers ]
C:/Users/iwaza/AppData/Local/Temp/_gbsbuild/obj/scene_71.rel
                                          [ scene_71 ]
C:/Users/iwaza/AppData/Local/Temp/_gbsbuild/obj/scene_72_collisions.rel
                                          [ scene_72_collisions ]
C:/Users/iwaza/AppData/Local/Temp/_gbsbuild/obj/scene_72_triggers.rel
                                          [ scene_72_triggers ]
C:/Users/iwaza/AppData/Local/Temp/_gbsbuild/obj/scene_72.rel
                                          [ scene_72 ]
C:/Users/iwaza/AppData/Local/Temp/_gbsbuild/obj/scene_73_collisions.rel
                                          [ scene_73_collisions ]
C:/Users/iwaza/AppData/Local/Temp/_gbsbuild/obj/scene_73_triggers.rel
                                          [ scene_73_triggers ]
C:/Users/iwaza/AppData/Local/Temp/_gbsbuild/obj/scene_73.rel
                                          [ scene_73 ]
C:/Users/iwaza/AppData/Local/Temp/_gbsbuild/obj/scene_74_collisions.rel
                                          [ scene_74_collisions ]
C:/Users/iwaza/AppData/Local/Temp/_gbsbuild/obj/scene_74_triggers.rel
                                          [ scene_74_triggers ]
C:/Users/iwaza/AppData/Local/Temp/_gbsbuild/obj/scene_74.rel
                                          [ scene_74 ]
C:/Users/iwaza/AppData/Local/Temp/_gbsbuild/obj/scene_75_collisions.rel
                                          [ scene_75_collisions ]
C:/Users/iwaza/AppData/Local/Temp/_gbsbuild/obj/scene_75_triggers.rel
                                          [ scene_75_triggers ]
C:/Users/iwaza/AppData/Local/Temp/_gbsbuild/obj/scene_75.rel
                                          [ scene_75 ]
C:/Users/iwaza/AppData/Local/Temp/_gbsbuild/obj/scene_76_collisions.rel
                                          [ scene_76_collisions ]
C:/Users/iwaza/AppData/Local/Temp/_gbsbuild/obj/scene_76_triggers.rel
                                          [ scene_76_triggers ]
C:/Users/iwaza/AppData/Local/Temp/_gbsbuild/obj/scene_76.rel
                                          [ scene_76 ]
C:/Users/iwaza/AppData/Local/Temp/_gbsbuild/obj/scene_77_collisions.rel
                                          [ scene_77_collisions ]
C:/Users/iwaza/AppData/Local/Temp/_gbsbuild/obj/scene_77.rel
                                          [ scene_77 ]
C:/Users/iwaza/AppData/Local/Temp/_gbsbuild/obj/scene_78_collisions.rel
                                          [ scene_78_collisions ]
C:/Users/iwaza/AppData/Local/Temp/_gbsbuild/obj/scene_78_triggers.rel
                                          [ scene_78_triggers ]
C:/Users/iwaza/AppData/Local/Temp/_gbsbuild/obj/scene_78.rel
                                          [ scene_78 ]
C:/Users/iwaza/AppData/Local/Temp/_gbsbuild/obj/scene_79_collisions.rel
                                          [ scene_79_collisions ]
C:/Users/iwaza/AppData/Local/Temp/_gbsbuild/obj/scene_79_triggers.rel
                                          [ scene_79_triggers ]
C:/Users/iwaza/AppData/Local/Temp/_gbsbuild/obj/scene_79.rel
                                          [ scene_79 ]
C:/Users/iwaza/AppData/Local/Temp/_gbsbuild/obj/scene_8_actors.rel
                                          [ scene_8_actors ]
C:/Users/iwaza/AppData/Local/Temp/_gbsbuild/obj/scene_8_collisions.rel
                                          [ scene_8_collisions ]
C:/Users/iwaza/AppData/Local/Temp/_gbsbuild/obj/scene_8_sprites.rel
                                          [ scene_8_sprites ]
C:/Users/iwaza/AppData/Local/Temp/_gbsbuild/obj/scene_8_triggers.rel
                                          [ scene_8_triggers ]
C:/Users/iwaza/AppData/Local/Temp/_gbsbuild/obj/scene_8.rel
                                          [ scene_8 ]
C:/Users/iwaza/AppData/Local/Temp/_gbsbuild/obj/scene_80_collisions.rel
                                          [ scene_80_collisions ]
C:/Users/iwaza/AppData/Local/Temp/_gbsbuild/obj/scene_80_triggers.rel
                                          [ scene_80_triggers ]
C:/Users/iwaza/AppData/Local/Temp/_gbsbuild/obj/scene_80.rel
                                          [ scene_80 ]
C:/Users/iwaza/AppData/Local/Temp/_gbsbuild/obj/scene_81_collisions.rel
                                          [ scene_81_collisions ]
C:/Users/iwaza/AppData/Local/Temp/_gbsbuild/obj/scene_81_triggers.rel
                                          [ scene_81_triggers ]
C:/Users/iwaza/AppData/Local/Temp/_gbsbuild/obj/scene_81.rel
                                          [ scene_81 ]
C:/Users/iwaza/AppData/Local/Temp/_gbsbuild/obj/scene_82_collisions.rel
                                          [ scene_82_collisions ]
C:/Users/iwaza/AppData/Local/Temp/_gbsbuild/obj/scene_82_triggers.rel
                                          [ scene_82_triggers ]
C:/Users/iwaza/AppData/Local/Temp/_gbsbuild/obj/scene_82.rel
                                          [ scene_82 ]
C:/Users/iwaza/AppData/Local/Temp/_gbsbuild/obj/scene_83_collisions.rel
                                          [ scene_83_collisions ]
C:/Users/iwaza/AppData/Local/Temp/_gbsbuild/obj/scene_83_triggers.rel
                                          [ scene_83_triggers ]
C:/Users/iwaza/AppData/Local/Temp/_gbsbuild/obj/scene_83.rel
                                          [ scene_83 ]
C:/Users/iwaza/AppData/Local/Temp/_gbsbuild/obj/scene_84_collisions.rel
                                          [ scene_84_collisions ]
C:/Users/iwaza/AppData/Local/Temp/_gbsbuild/obj/scene_84_triggers.rel
                                          [ scene_84_triggers ]
C:/Users/iwaza/AppData/Local/Temp/_gbsbuild/obj/scene_84.rel
                                          [ scene_84 ]
C:/Users/iwaza/AppData/Local/Temp/_gbsbuild/obj/scene_85_collisions.rel
                                          [ scene_85_collisions ]
C:/Users/iwaza/AppData/Local/Temp/_gbsbuild/obj/scene_85_triggers.rel
                                          [ scene_85_triggers ]
C:/Users/iwaza/AppData/Local/Temp/_gbsbuild/obj/scene_85.rel
                                          [ scene_85 ]
C:/Users/iwaza/AppData/Local/Temp/_gbsbuild/obj/scene_86_collisions.rel
                                          [ scene_86_collisions ]
C:/Users/iwaza/AppData/Local/Temp/_gbsbuild/obj/scene_86_triggers.rel
                                          [ scene_86_triggers ]
C:/Users/iwaza/AppData/Local/Temp/_gbsbuild/obj/scene_86.rel
                                          [ scene_86 ]
C:/Users/iwaza/AppData/Local/Temp/_gbsbuild/obj/scene_87_collisions.rel
                                          [ scene_87_collisions ]
C:/Users/iwaza/AppData/Local/Temp/_gbsbuild/obj/scene_87_triggers.rel
                                          [ scene_87_triggers ]
C:/Users/iwaza/AppData/Local/Temp/_gbsbuild/obj/scene_87.rel
                                          [ scene_87 ]
C:/Users/iwaza/AppData/Local/Temp/_gbsbuild/obj/scene_88_collisions.rel
                                          [ scene_88_collisions ]
C:/Users/iwaza/AppData/Local/Temp/_gbsbuild/obj/scene_88_triggers.rel
                                          [ scene_88_triggers ]
C:/Users/iwaza/AppData/Local/Temp/_gbsbuild/obj/scene_88.rel
                                          [ scene_88 ]
C:/Users/iwaza/AppData/Local/Temp/_gbsbuild/obj/scene_89_collisions.rel
                                          [ scene_89_collisions ]
C:/Users/iwaza/AppData/Local/Temp/_gbsbuild/obj/scene_89_triggers.rel
                                          [ scene_89_triggers ]
C:/Users/iwaza/AppData/Local/Temp/_gbsbuild/obj/scene_89.rel
                                          [ scene_89 ]
C:/Users/iwaza/AppData/Local/Temp/_gbsbuild/obj/scene_9_actors.rel
                                          [ scene_9_actors ]
C:/Users/iwaza/AppData/Local/Temp/_gbsbuild/obj/scene_9_collisions.rel
                                          [ scene_9_collisions ]
C:/Users/iwaza/AppData/Local/Temp/_gbsbuild/obj/scene_9_sprites.rel
                                          [ scene_9_sprites ]
C:/Users/iwaza/AppData/Local/Temp/_gbsbuild/obj/scene_9_triggers.rel
                                          [ scene_9_triggers ]
C:/Users/iwaza/AppData/Local/Temp/_gbsbuild/obj/scene_9.rel
                                          [ scene_9 ]
C:/Users/iwaza/AppData/Local/Temp/_gbsbuild/obj/scene_90_actors.rel
                                          [ scene_90_actors ]
C:/Users/iwaza/AppData/Local/Temp/_gbsbuild/obj/scene_90_collisions.rel
                                          [ scene_90_collisions ]
C:/Users/iwaza/AppData/Local/Temp/_gbsbuild/obj/scene_90_sprites.rel
                                          [ scene_90_sprites ]
C:/Users/iwaza/AppData/Local/Temp/_gbsbuild/obj/scene_90.rel
                                          [ scene_90 ]
C:/Users/iwaza/AppData/Local/Temp/_gbsbuild/obj/scene_91_actors.rel
                                          [ scene_91_actors ]
C:/Users/iwaza/AppData/Local/Temp/_gbsbuild/obj/scene_91_collisions.rel
                                          [ scene_91_collisions ]
C:/Users/iwaza/AppData/Local/Temp/_gbsbuild/obj/scene_91_sprites.rel
                                          [ scene_91_sprites ]
C:/Users/iwaza/AppData/Local/Temp/_gbsbuild/obj/scene_91.rel
                                          [ scene_91 ]
C:/Users/iwaza/AppData/Local/Temp/_gbsbuild/obj/scene_92_collisions.rel
                                          [ scene_92_collisions ]
C:/Users/iwaza/AppData/Local/Temp/_gbsbuild/obj/scene_92.rel
                                          [ scene_92 ]
C:/Users/iwaza/AppData/Local/Temp/_gbsbuild/obj/scene_93_collisions.rel
                                          [ scene_93_collisions ]
C:/Users/iwaza/AppData/Local/Temp/_gbsbuild/obj/scene_93.rel
                                          [ scene_93 ]
C:/Users/iwaza/AppData/Local/Temp/_gbsbuild/obj/scene_94_collisions.rel
                                          [ scene_94_collisions ]
C:/Users/iwaza/AppData/Local/Temp/_gbsbuild/obj/scene_94.rel
                                          [ scene_94 ]
C:/Users/iwaza/AppData/Local/Temp/_gbsbuild/obj/scene_95_collisions.rel
                                          [ scene_95_collisions ]
C:/Users/iwaza/AppData/Local/Temp/_gbsbuild/obj/scene_95.rel
                                          [ scene_95 ]
C:/Users/iwaza/AppData/Local/Temp/_gbsbuild/obj/scene_96_actors.rel
                                          [ scene_96_actors ]
C:/Users/iwaza/AppData/Local/Temp/_gbsbuild/obj/scene_96_collisions.rel
                                          [ scene_96_collisions ]
C:/Users/iwaza/AppData/Local/Temp/_gbsbuild/obj/scene_96_sprites.rel
                                          [ scene_96_sprites ]
C:/Users/iwaza/AppData/Local/Temp/_gbsbuild/obj/scene_96.rel
                                          [ scene_96 ]
C:/Users/iwaza/AppData/Local/Temp/_gbsbuild/obj/scene_97_actors.rel
                                          [ scene_97_actors ]
C:/Users/iwaza/AppData/Local/Temp/_gbsbuild/obj/scene_97_collisions.rel
                                          [ scene_97_collisions ]
C:/Users/iwaza/AppData/Local/Temp/_gbsbuild/obj/scene_97_sprites.rel
                                          [ scene_97_sprites ]
C:/Users/iwaza/AppData/Local/Temp/_gbsbuild/obj/scene_97.rel
                                          [ scene_97 ]
C:/Users/iwaza/AppData/Local/Temp/_gbsbuild/obj/scene_98_actors.rel
                                          [ scene_98_actors ]
C:/Users/iwaza/AppData/Local/Temp/_gbsbuild/obj/scene_98_collisions.rel
                                          [ scene_98_collisions ]
C:/Users/iwaza/AppData/Local/Temp/_gbsbuild/obj/scene_98_sprites.rel
                                          [ scene_98_sprites ]
C:/Users/iwaza/AppData/Local/Temp/_gbsbuild/obj/scene_98.rel
                                          [ scene_98 ]
C:/Users/iwaza/AppData/Local/Temp/_gbsbuild/obj/scene_99_actors.rel
                                          [ scene_99_actors ]
C:/Users/iwaza/AppData/Local/Temp/_gbsbuild/obj/scene_99_collisions.rel
                                          [ scene_99_collisions ]
C:/Users/iwaza/AppData/Local/Temp/_gbsbuild/obj/scene_99_sprites.rel
                                          [ scene_99_sprites ]
C:/Users/iwaza/AppData/Local/Temp/_gbsbuild/obj/scene_99.rel
                                          [ scene_99 ]
C:/Users/iwaza/AppData/Local/Temp/_gbsbuild/obj/script_engine_init.rel
                                          [  ]
C:/Users/iwaza/AppData/Local/Temp/_gbsbuild/obj/script_input_0.rel
                                          [  ]
C:/Users/iwaza/AppData/Local/Temp/_gbsbuild/obj/script_input_1.rel
                                          [  ]
C:/Users/iwaza/AppData/Local/Temp/_gbsbuild/obj/script_input_10.rel
                                          [  ]
C:/Users/iwaza/AppData/Local/Temp/_gbsbuild/obj/script_input_11.rel
                                          [  ]
C:/Users/iwaza/AppData/Local/Temp/_gbsbuild/obj/script_input_12.rel
                                          [  ]
C:/Users/iwaza/AppData/Local/Temp/_gbsbuild/obj/script_input_13.rel
                                          [  ]
C:/Users/iwaza/AppData/Local/Temp/_gbsbuild/obj/script_input_2.rel
                                          [  ]
C:/Users/iwaza/AppData/Local/Temp/_gbsbuild/obj/script_input_3.rel
                                          [  ]
C:/Users/iwaza/AppData/Local/Temp/_gbsbuild/obj/script_input_4.rel
                                          [  ]
C:/Users/iwaza/AppData/Local/Temp/_gbsbuild/obj/script_input_5.rel
                                          [  ]
C:/Users/iwaza/AppData/Local/Temp/_gbsbuild/obj/script_input_6.rel
                                          [  ]
C:/Users/iwaza/AppData/Local/Temp/_gbsbuild/obj/script_input_7.rel
                                          [  ]
C:/Users/iwaza/AppData/Local/Temp/_gbsbuild/obj/script_input_8.rel
                                          [  ]
C:/Users/iwaza/AppData/Local/Temp/_gbsbuild/obj/script_input_9.rel
                                          [  ]
C:/Users/iwaza/AppData/Local/Temp/_gbsbuild/obj/script_s0_init.rel
                                          [  ]
C:/Users/iwaza/AppData/Local/Temp/_gbsbuild/obj/script_s1_init.rel
                                          [  ]
C:/Users/iwaza/AppData/Local/Temp/_gbsbuild/obj/script_s100_init.rel
                                          [  ]
C:/Users/iwaza/AppData/Local/Temp/_gbsbuild/obj/script_s101_init.rel
                                          [  ]
C:/Users/iwaza/AppData/Local/Temp/_gbsbuild/obj/script_s102_init.rel
                                          [  ]
C:/Users/iwaza/AppData/Local/Temp/_gbsbuild/obj/script_s102t0_interact.rel
                                          [  ]
C:/Users/iwaza/AppData/Local/Temp/_gbsbuild/obj/script_s102t1_interact.rel
                                          [  ]
C:/Users/iwaza/AppData/Local/Temp/_gbsbuild/obj/script_s103_init.rel
                                          [  ]
C:/Users/iwaza/AppData/Local/Temp/_gbsbuild/obj/script_s103t0_interact.rel
                                          [  ]
C:/Users/iwaza/AppData/Local/Temp/_gbsbuild/obj/script_s103t1_interact.rel
                                          [  ]
C:/Users/iwaza/AppData/Local/Temp/_gbsbuild/obj/script_s104t0_interact.rel
                                          [  ]
C:/Users/iwaza/AppData/Local/Temp/_gbsbuild/obj/script_s104t1_interact.rel
                                          [  ]
C:/Users/iwaza/AppData/Local/Temp/_gbsbuild/obj/script_s104t2_interact.rel
                                          [  ]
C:/Users/iwaza/AppData/Local/Temp/_gbsbuild/obj/script_s105t0_interact.rel
                                          [  ]
C:/Users/iwaza/AppData/Local/Temp/_gbsbuild/obj/script_s105t1_interact.rel
                                          [  ]
C:/Users/iwaza/AppData/Local/Temp/_gbsbuild/obj/script_s106_init.rel
                                          [  ]
C:/Users/iwaza/AppData/Local/Temp/_gbsbuild/obj/script_s107_init.rel
                                          [  ]
C:/Users/iwaza/AppData/Local/Temp/_gbsbuild/obj/script_s108t0_interact.rel
                                          [  ]
C:/Users/iwaza/AppData/Local/Temp/_gbsbuild/obj/script_s108t1_interact.rel
                                          [  ]
C:/Users/iwaza/AppData/Local/Temp/_gbsbuild/obj/script_s108t2_interact.rel
                                          [  ]
C:/Users/iwaza/AppData/Local/Temp/_gbsbuild/obj/script_s109t0_interact.rel
                                          [  ]
C:/Users/iwaza/AppData/Local/Temp/_gbsbuild/obj/script_s109t1_interact.rel
                                          [  ]
C:/Users/iwaza/AppData/Local/Temp/_gbsbuild/obj/script_s10t0_interact.rel
                                          [  ]
C:/Users/iwaza/AppData/Local/Temp/_gbsbuild/obj/script_s10t1_interact.rel
                                          [  ]
C:/Users/iwaza/AppData/Local/Temp/_gbsbuild/obj/script_s110_init.rel
                                          [  ]
C:/Users/iwaza/AppData/Local/Temp/_gbsbuild/obj/script_s110t0_interact.rel
                                          [  ]
C:/Users/iwaza/AppData/Local/Temp/_gbsbuild/obj/script_s111_init.rel
                                          [  ]
C:/Users/iwaza/AppData/Local/Temp/_gbsbuild/obj/script_s111t0_interact.rel
                                          [  ]
C:/Users/iwaza/AppData/Local/Temp/_gbsbuild/obj/script_s112_init.rel
                                          [  ]
C:/Users/iwaza/AppData/Local/Temp/_gbsbuild/obj/script_s113_init.rel
                                          [  ]
C:/Users/iwaza/AppData/Local/Temp/_gbsbuild/obj/script_s114_init.rel
                                          [  ]
C:/Users/iwaza/AppData/Local/Temp/_gbsbuild/obj/script_s115_init.rel
                                          [  ]
C:/Users/iwaza/AppData/Local/Temp/_gbsbuild/obj/script_s116_init.rel
                                          [  ]
C:/Users/iwaza/AppData/Local/Temp/_gbsbuild/obj/script_s117_init.rel
                                          [  ]
C:/Users/iwaza/AppData/Local/Temp/_gbsbuild/obj/script_s117t0_interact.rel
                                          [  ]
C:/Users/iwaza/AppData/Local/Temp/_gbsbuild/obj/script_s118_init.rel
                                          [  ]
C:/Users/iwaza/AppData/Local/Temp/_gbsbuild/obj/script_s118t0_interact.rel
                                          [  ]
C:/Users/iwaza/AppData/Local/Temp/_gbsbuild/obj/script_s119t0_interact.rel
                                          [  ]
C:/Users/iwaza/AppData/Local/Temp/_gbsbuild/obj/script_s11t0_interact.rel
                                          [  ]
C:/Users/iwaza/AppData/Local/Temp/_gbsbuild/obj/script_s11t1_interact.rel
                                          [  ]
C:/Users/iwaza/AppData/Local/Temp/_gbsbuild/obj/script_s11t2_interact.rel
                                          [  ]
C:/Users/iwaza/AppData/Local/Temp/_gbsbuild/obj/script_s120_init.rel
                                          [  ]
C:/Users/iwaza/AppData/Local/Temp/_gbsbuild/obj/script_s121_init.rel
                                          [  ]
C:/Users/iwaza/AppData/Local/Temp/_gbsbuild/obj/script_s122_init.rel
                                          [  ]
C:/Users/iwaza/AppData/Local/Temp/_gbsbuild/obj/script_s123_init.rel
                                          [  ]
C:/Users/iwaza/AppData/Local/Temp/_gbsbuild/obj/script_s124_init.rel
                                          [  ]
C:/Users/iwaza/AppData/Local/Temp/_gbsbuild/obj/script_s125_init.rel
                                          [  ]
C:/Users/iwaza/AppData/Local/Temp/_gbsbuild/obj/script_s126_init.rel
                                          [  ]
C:/Users/iwaza/AppData/Local/Temp/_gbsbuild/obj/script_s127_init.rel
                                          [  ]
C:/Users/iwaza/AppData/Local/Temp/_gbsbuild/obj/script_s128_init.rel
                                          [  ]
C:/Users/iwaza/AppData/Local/Temp/_gbsbuild/obj/script_s129_init.rel
                                          [  ]
C:/Users/iwaza/AppData/Local/Temp/_gbsbuild/obj/script_s12t0_interact.rel
                                          [  ]
C:/Users/iwaza/AppData/Local/Temp/_gbsbuild/obj/script_s12t1_interact.rel
                                          [  ]
C:/Users/iwaza/AppData/Local/Temp/_gbsbuild/obj/script_s130_init.rel
                                          [  ]
C:/Users/iwaza/AppData/Local/Temp/_gbsbuild/obj/script_s131_init.rel
                                          [  ]
C:/Users/iwaza/AppData/Local/Temp/_gbsbuild/obj/script_s132_init.rel
                                          [  ]
C:/Users/iwaza/AppData/Local/Temp/_gbsbuild/obj/script_s133_init.rel
                                          [  ]
C:/Users/iwaza/AppData/Local/Temp/_gbsbuild/obj/script_s134_init.rel
                                          [  ]
C:/Users/iwaza/AppData/Local/Temp/_gbsbuild/obj/script_s135_init.rel
                                          [  ]
C:/Users/iwaza/AppData/Local/Temp/_gbsbuild/obj/script_s136_init.rel
                                          [  ]
C:/Users/iwaza/AppData/Local/Temp/_gbsbuild/obj/script_s137_init.rel
                                          [  ]
C:/Users/iwaza/AppData/Local/Temp/_gbsbuild/obj/script_s138_init.rel
                                          [  ]
C:/Users/iwaza/AppData/Local/Temp/_gbsbuild/obj/script_s139_init.rel
                                          [  ]
C:/Users/iwaza/AppData/Local/Temp/_gbsbuild/obj/script_s13t0_interact.rel
                                          [  ]
C:/Users/iwaza/AppData/Local/Temp/_gbsbuild/obj/script_s13t1_interact.rel
                                          [  ]
C:/Users/iwaza/AppData/Local/Temp/_gbsbuild/obj/script_s140_init.rel
                                          [  ]
C:/Users/iwaza/AppData/Local/Temp/_gbsbuild/obj/script_s141_init.rel
                                          [  ]
C:/Users/iwaza/AppData/Local/Temp/_gbsbuild/obj/script_s142_init.rel
                                          [  ]
C:/Users/iwaza/AppData/Local/Temp/_gbsbuild/obj/script_s143_init.rel
                                          [  ]
C:/Users/iwaza/AppData/Local/Temp/_gbsbuild/obj/script_s144_init.rel
                                          [  ]
C:/Users/iwaza/AppData/Local/Temp/_gbsbuild/obj/script_s145_init.rel
                                          [  ]
C:/Users/iwaza/AppData/Local/Temp/_gbsbuild/obj/script_s14t0_interact.rel
                                          [  ]
C:/Users/iwaza/AppData/Local/Temp/_gbsbuild/obj/script_s14t1_interact.rel
                                          [  ]
C:/Users/iwaza/AppData/Local/Temp/_gbsbuild/obj/script_s15t0_interact.rel
                                          [  ]
C:/Users/iwaza/AppData/Local/Temp/_gbsbuild/obj/script_s15t1_interact.rel
                                          [  ]
C:/Users/iwaza/AppData/Local/Temp/_gbsbuild/obj/script_s16t0_interact.rel
                                          [  ]
C:/Users/iwaza/AppData/Local/Temp/_gbsbuild/obj/script_s16t1_interact.rel
                                          [  ]
C:/Users/iwaza/AppData/Local/Temp/_gbsbuild/obj/script_s17t0_interact.rel
                                          [  ]
C:/Users/iwaza/AppData/Local/Temp/_gbsbuild/obj/script_s17t1_interact.rel
                                          [  ]
C:/Users/iwaza/AppData/Local/Temp/_gbsbuild/obj/script_s17t2_interact.rel
                                          [  ]
C:/Users/iwaza/AppData/Local/Temp/_gbsbuild/obj/script_s17t3_interact.rel
                                          [  ]
C:/Users/iwaza/AppData/Local/Temp/_gbsbuild/obj/script_s17t4_interact.rel
                                          [  ]
C:/Users/iwaza/AppData/Local/Temp/_gbsbuild/obj/script_s18t0_interact.rel
                                          [  ]
C:/Users/iwaza/AppData/Local/Temp/_gbsbuild/obj/script_s18t1_interact.rel
                                          [  ]
C:/Users/iwaza/AppData/Local/Temp/_gbsbuild/obj/script_s19t0_interact.rel
                                          [  ]
C:/Users/iwaza/AppData/Local/Temp/_gbsbuild/obj/script_s19t1_interact.rel
                                          [  ]
C:/Users/iwaza/AppData/Local/Temp/_gbsbuild/obj/script_s2_init.rel
                                          [  ]
C:/Users/iwaza/AppData/Local/Temp/_gbsbuild/obj/script_s20t0_interact.rel
                                          [  ]
C:/Users/iwaza/AppData/Local/Temp/_gbsbuild/obj/script_s20t1_interact.rel
                                          [  ]
C:/Users/iwaza/AppData/Local/Temp/_gbsbuild/obj/script_s21t0_interact.rel
                                          [  ]
C:/Users/iwaza/AppData/Local/Temp/_gbsbuild/obj/script_s21t1_interact.rel
                                          [  ]
C:/Users/iwaza/AppData/Local/Temp/_gbsbuild/obj/script_s21t2_interact.rel
                                          [  ]
C:/Users/iwaza/AppData/Local/Temp/_gbsbuild/obj/script_s22_init.rel
                                          [  ]
C:/Users/iwaza/AppData/Local/Temp/_gbsbuild/obj/script_s22t0_interact.rel
                                          [  ]
C:/Users/iwaza/AppData/Local/Temp/_gbsbuild/obj/script_s22t1_interact.rel
                                          [  ]
C:/Users/iwaza/AppData/Local/Temp/_gbsbuild/obj/script_s22t2_interact.rel
                                          [  ]
C:/Users/iwaza/AppData/Local/Temp/_gbsbuild/obj/script_s22t3_interact.rel
                                          [  ]
C:/Users/iwaza/AppData/Local/Temp/_gbsbuild/obj/script_s22t4_interact.rel
                                          [  ]
C:/Users/iwaza/AppData/Local/Temp/_gbsbuild/obj/script_s23t0_interact.rel
                                          [  ]
C:/Users/iwaza/AppData/Local/Temp/_gbsbuild/obj/script_s23t1_interact.rel
                                          [  ]
C:/Users/iwaza/AppData/Local/Temp/_gbsbuild/obj/script_s23t2_interact.rel
                                          [  ]
C:/Users/iwaza/AppData/Local/Temp/_gbsbuild/obj/script_s23t3_interact.rel
                                          [  ]
C:/Users/iwaza/AppData/Local/Temp/_gbsbuild/obj/script_s23t4_interact.rel
                                          [  ]
C:/Users/iwaza/AppData/Local/Temp/_gbsbuild/obj/script_s23t5_interact.rel
                                          [  ]
C:/Users/iwaza/AppData/Local/Temp/_gbsbuild/obj/script_s23t6_interact.rel
                                          [  ]
C:/Users/iwaza/AppData/Local/Temp/_gbsbuild/obj/script_s23t7_interact.rel
                                          [  ]
C:/Users/iwaza/AppData/Local/Temp/_gbsbuild/obj/script_s23t8_interact.rel
                                          [  ]
C:/Users/iwaza/AppData/Local/Temp/_gbsbuild/obj/script_s24t0_interact.rel
                                          [  ]
C:/Users/iwaza/AppData/Local/Temp/_gbsbuild/obj/script_s25t0_interact.rel
                                          [  ]
C:/Users/iwaza/AppData/Local/Temp/_gbsbuild/obj/script_s25t1_interact.rel
                                          [  ]
C:/Users/iwaza/AppData/Local/Temp/_gbsbuild/obj/script_s26t0_interact.rel
                                          [  ]
C:/Users/iwaza/AppData/Local/Temp/_gbsbuild/obj/script_s26t1_interact.rel
                                          [  ]
C:/Users/iwaza/AppData/Local/Temp/_gbsbuild/obj/script_s27t0_interact.rel
                                          [  ]
C:/Users/iwaza/AppData/Local/Temp/_gbsbuild/obj/script_s27t1_interact.rel
                                          [  ]
C:/Users/iwaza/AppData/Local/Temp/_gbsbuild/obj/script_s28t0_interact.rel
                                          [  ]
C:/Users/iwaza/AppData/Local/Temp/_gbsbuild/obj/script_s29t0_interact.rel
                                          [  ]
C:/Users/iwaza/AppData/Local/Temp/_gbsbuild/obj/script_s29t1_interact.rel
                                          [  ]
C:/Users/iwaza/AppData/Local/Temp/_gbsbuild/obj/script_s3_init.rel
                                          [  ]
C:/Users/iwaza/AppData/Local/Temp/_gbsbuild/obj/script_s30t0_interact.rel
                                          [  ]
C:/Users/iwaza/AppData/Local/Temp/_gbsbuild/obj/script_s31t0_interact.rel
                                          [  ]
C:/Users/iwaza/AppData/Local/Temp/_gbsbuild/obj/script_s31t1_interact.rel
                                          [  ]
C:/Users/iwaza/AppData/Local/Temp/_gbsbuild/obj/script_s32t0_interact.rel
                                          [  ]
C:/Users/iwaza/AppData/Local/Temp/_gbsbuild/obj/script_s32t1_interact.rel
                                          [  ]
C:/Users/iwaza/AppData/Local/Temp/_gbsbuild/obj/script_s32t2_interact.rel
                                          [  ]
C:/Users/iwaza/AppData/Local/Temp/_gbsbuild/obj/script_s33t0_interact.rel
                                          [  ]
C:/Users/iwaza/AppData/Local/Temp/_gbsbuild/obj/script_s33t1_interact.rel
                                          [  ]
C:/Users/iwaza/AppData/Local/Temp/_gbsbuild/obj/script_s34t0_interact.rel
                                          [  ]
C:/Users/iwaza/AppData/Local/Temp/_gbsbuild/obj/script_s34t1_interact.rel
                                          [  ]
C:/Users/iwaza/AppData/Local/Temp/_gbsbuild/obj/script_s35t0_interact.rel
                                          [  ]
C:/Users/iwaza/AppData/Local/Temp/_gbsbuild/obj/script_s36t0_interact.rel
                                          [  ]
C:/Users/iwaza/AppData/Local/Temp/_gbsbuild/obj/script_s36t1_interact.rel
                                          [  ]
C:/Users/iwaza/AppData/Local/Temp/_gbsbuild/obj/script_s37t0_interact.rel
                                          [  ]
C:/Users/iwaza/AppData/Local/Temp/_gbsbuild/obj/script_s38t0_interact.rel
                                          [  ]
C:/Users/iwaza/AppData/Local/Temp/_gbsbuild/obj/script_s39t0_interact.rel
                                          [  ]
C:/Users/iwaza/AppData/Local/Temp/_gbsbuild/obj/script_s40t0_interact.rel
                                          [  ]
C:/Users/iwaza/AppData/Local/Temp/_gbsbuild/obj/script_s40t1_interact.rel
                                          [  ]
C:/Users/iwaza/AppData/Local/Temp/_gbsbuild/obj/script_s41t0_interact.rel
                                          [  ]
C:/Users/iwaza/AppData/Local/Temp/_gbsbuild/obj/script_s42t0_interact.rel
                                          [  ]
C:/Users/iwaza/AppData/Local/Temp/_gbsbuild/obj/script_s42t1_interact.rel
                                          [  ]
C:/Users/iwaza/AppData/Local/Temp/_gbsbuild/obj/script_s42t2_interact.rel
                                          [  ]
C:/Users/iwaza/AppData/Local/Temp/_gbsbuild/obj/script_s4t0_interact.rel
                                          [  ]
C:/Users/iwaza/AppData/Local/Temp/_gbsbuild/obj/script_s5_init.rel
                                          [  ]
C:/Users/iwaza/AppData/Local/Temp/_gbsbuild/obj/script_s5t0_interact.rel
                                          [  ]
C:/Users/iwaza/AppData/Local/Temp/_gbsbuild/obj/script_s63t0_interact.rel
                                          [  ]
C:/Users/iwaza/AppData/Local/Temp/_gbsbuild/obj/script_s64t0_interact.rel
                                          [  ]
C:/Users/iwaza/AppData/Local/Temp/_gbsbuild/obj/script_s64t1_interact.rel
                                          [  ]
C:/Users/iwaza/AppData/Local/Temp/_gbsbuild/obj/script_s65t0_interact.rel
                                          [  ]
C:/Users/iwaza/AppData/Local/Temp/_gbsbuild/obj/script_s65t1_interact.rel
                                          [  ]
C:/Users/iwaza/AppData/Local/Temp/_gbsbuild/obj/script_s66t0_interact.rel
                                          [  ]
C:/Users/iwaza/AppData/Local/Temp/_gbsbuild/obj/script_s66t1_interact.rel
                                          [  ]
C:/Users/iwaza/AppData/Local/Temp/_gbsbuild/obj/script_s66t2_interact.rel
                                          [  ]
C:/Users/iwaza/AppData/Local/Temp/_gbsbuild/obj/script_s67t0_interact.rel
                                          [  ]
C:/Users/iwaza/AppData/Local/Temp/_gbsbuild/obj/script_s67t1_interact.rel
                                          [  ]
C:/Users/iwaza/AppData/Local/Temp/_gbsbuild/obj/script_s68t0_interact.rel
                                          [  ]
C:/Users/iwaza/AppData/Local/Temp/_gbsbuild/obj/script_s68t1_interact.rel
                                          [  ]
C:/Users/iwaza/AppData/Local/Temp/_gbsbuild/obj/script_s68t2_interact.rel
                                          [  ]
C:/Users/iwaza/AppData/Local/Temp/_gbsbuild/obj/script_s69t0_interact.rel
                                          [  ]
C:/Users/iwaza/AppData/Local/Temp/_gbsbuild/obj/script_s69t1_interact.rel
                                          [  ]
C:/Users/iwaza/AppData/Local/Temp/_gbsbuild/obj/script_s6t0_interact.rel
                                          [  ]
C:/Users/iwaza/AppData/Local/Temp/_gbsbuild/obj/script_s6t1_interact.rel
                                          [  ]
C:/Users/iwaza/AppData/Local/Temp/_gbsbuild/obj/script_s6t2_interact.rel
                                          [  ]
C:/Users/iwaza/AppData/Local/Temp/_gbsbuild/obj/script_s6t3_interact.rel
                                          [  ]
C:/Users/iwaza/AppData/Local/Temp/_gbsbuild/obj/script_s70t0_interact.rel
                                          [  ]
C:/Users/iwaza/AppData/Local/Temp/_gbsbuild/obj/script_s70t1_interact.rel
                                          [  ]
C:/Users/iwaza/AppData/Local/Temp/_gbsbuild/obj/script_s70t2_interact.rel
                                          [  ]
C:/Users/iwaza/AppData/Local/Temp/_gbsbuild/obj/script_s70t3_interact.rel
                                          [  ]
C:/Users/iwaza/AppData/Local/Temp/_gbsbuild/obj/script_s70t4_interact.rel
                                          [  ]
C:/Users/iwaza/AppData/Local/Temp/_gbsbuild/obj/script_s70t5_interact.rel
                                          [  ]
C:/Users/iwaza/AppData/Local/Temp/_gbsbuild/obj/script_s71t0_interact.rel
                                          [  ]
C:/Users/iwaza/AppData/Local/Temp/_gbsbuild/obj/script_s71t1_interact.rel
                                          [  ]
C:/Users/iwaza/AppData/Local/Temp/_gbsbuild/obj/script_s71t2_interact.rel
                                          [  ]
C:/Users/iwaza/AppData/Local/Temp/_gbsbuild/obj/script_s71t3_interact.rel
                                          [  ]
C:/Users/iwaza/AppData/Local/Temp/_gbsbuild/obj/script_s72t0_interact.rel
                                          [  ]
C:/Users/iwaza/AppData/Local/Temp/_gbsbuild/obj/script_s72t1_interact.rel
                                          [  ]
C:/Users/iwaza/AppData/Local/Temp/_gbsbuild/obj/script_s73t0_interact.rel
                                          [  ]
C:/Users/iwaza/AppData/Local/Temp/_gbsbuild/obj/script_s73t1_interact.rel
                                          [  ]
C:/Users/iwaza/AppData/Local/Temp/_gbsbuild/obj/script_s74t0_interact.rel
                                          [  ]
C:/Users/iwaza/AppData/Local/Temp/_gbsbuild/obj/script_s74t1_interact.rel
                                          [  ]
C:/Users/iwaza/AppData/Local/Temp/_gbsbuild/obj/script_s75t0_interact.rel
                                          [  ]
C:/Users/iwaza/AppData/Local/Temp/_gbsbuild/obj/script_s75t1_interact.rel
                                          [  ]
C:/Users/iwaza/AppData/Local/Temp/_gbsbuild/obj/script_s76t0_interact.rel
                                          [  ]
C:/Users/iwaza/AppData/Local/Temp/_gbsbuild/obj/script_s76t1_interact.rel
                                          [  ]
C:/Users/iwaza/AppData/Local/Temp/_gbsbuild/obj/script_s78t0_interact.rel
                                          [  ]
C:/Users/iwaza/AppData/Local/Temp/_gbsbuild/obj/script_s78t1_interact.rel
                                          [  ]
C:/Users/iwaza/AppData/Local/Temp/_gbsbuild/obj/script_s79t0_interact.rel
                                          [  ]
C:/Users/iwaza/AppData/Local/Temp/_gbsbuild/obj/script_s7a0_update.rel
                                          [  ]
C:/Users/iwaza/AppData/Local/Temp/_gbsbuild/obj/script_s7a1_interact.rel
                                          [  ]
C:/Users/iwaza/AppData/Local/Temp/_gbsbuild/obj/script_s7t0_interact.rel
                                          [  ]
C:/Users/iwaza/AppData/Local/Temp/_gbsbuild/obj/script_s7t1_interact.rel
                                          [  ]
C:/Users/iwaza/AppData/Local/Temp/_gbsbuild/obj/script_s7t2_interact.rel
                                          [  ]
C:/Users/iwaza/AppData/Local/Temp/_gbsbuild/obj/script_s80t0_interact.rel
                                          [  ]
C:/Users/iwaza/AppData/Local/Temp/_gbsbuild/obj/script_s80t1_interact.rel
                                          [  ]
C:/Users/iwaza/AppData/Local/Temp/_gbsbuild/obj/script_s81t0_interact.rel
                                          [  ]
C:/Users/iwaza/AppData/Local/Temp/_gbsbuild/obj/script_s82t0_interact.rel
                                          [  ]
C:/Users/iwaza/AppData/Local/Temp/_gbsbuild/obj/script_s82t1_interact.rel
                                          [  ]
C:/Users/iwaza/AppData/Local/Temp/_gbsbuild/obj/script_s83t0_interact.rel
                                          [  ]
C:/Users/iwaza/AppData/Local/Temp/_gbsbuild/obj/script_s83t1_interact.rel
                                          [  ]
C:/Users/iwaza/AppData/Local/Temp/_gbsbuild/obj/script_s84t0_interact.rel
                                          [  ]
C:/Users/iwaza/AppData/Local/Temp/_gbsbuild/obj/script_s84t1_interact.rel
                                          [  ]
C:/Users/iwaza/AppData/Local/Temp/_gbsbuild/obj/script_s84t2_interact.rel
                                          [  ]
C:/Users/iwaza/AppData/Local/Temp/_gbsbuild/obj/script_s84t3_interact.rel
                                          [  ]
C:/Users/iwaza/AppData/Local/Temp/_gbsbuild/obj/script_s85t0_interact.rel
                                          [  ]
C:/Users/iwaza/AppData/Local/Temp/_gbsbuild/obj/script_s85t1_interact.rel
                                          [  ]
C:/Users/iwaza/AppData/Local/Temp/_gbsbuild/obj/script_s85t2_interact.rel
                                          [  ]
C:/Users/iwaza/AppData/Local/Temp/_gbsbuild/obj/script_s85t3_interact.rel
                                          [  ]
C:/Users/iwaza/AppData/Local/Temp/_gbsbuild/obj/script_s85t4_interact.rel
                                          [  ]
C:/Users/iwaza/AppData/Local/Temp/_gbsbuild/obj/script_s86t0_interact.rel
                                          [  ]
C:/Users/iwaza/AppData/Local/Temp/_gbsbuild/obj/script_s87t0_interact.rel
                                          [  ]
C:/Users/iwaza/AppData/Local/Temp/_gbsbuild/obj/script_s87t1_interact.rel
                                          [  ]
C:/Users/iwaza/AppData/Local/Temp/_gbsbuild/obj/script_s88t0_interact.rel
                                          [  ]
C:/Users/iwaza/AppData/Local/Temp/_gbsbuild/obj/script_s88t1_interact.rel
                                          [  ]
C:/Users/iwaza/AppData/Local/Temp/_gbsbuild/obj/script_s88t2_interact.rel
                                          [  ]
C:/Users/iwaza/AppData/Local/Temp/_gbsbuild/obj/script_s89t0_interact.rel
                                          [  ]
C:/Users/iwaza/AppData/Local/Temp/_gbsbuild/obj/script_s89t1_interact.rel
                                          [  ]
C:/Users/iwaza/AppData/Local/Temp/_gbsbuild/obj/script_s89t2_interact.rel
                                          [  ]
C:/Users/iwaza/AppData/Local/Temp/_gbsbuild/obj/script_s89t3_interact.rel
                                          [  ]
C:/Users/iwaza/AppData/Local/Temp/_gbsbuild/obj/script_s89t4_interact.rel
                                          [  ]
C:/Users/iwaza/AppData/Local/Temp/_gbsbuild/obj/script_s8t0_interact.rel
                                          [  ]
C:/Users/iwaza/AppData/Local/Temp/_gbsbuild/obj/script_s8t1_interact.rel
                                          [  ]
C:/Users/iwaza/AppData/Local/Temp/_gbsbuild/obj/script_s90_init.rel
                                          [  ]
C:/Users/iwaza/AppData/Local/Temp/_gbsbuild/obj/script_s91_init.rel
                                          [  ]
C:/Users/iwaza/AppData/Local/Temp/_gbsbuild/obj/script_s92_init.rel
                                          [  ]
C:/Users/iwaza/AppData/Local/Temp/_gbsbuild/obj/script_s93_init.rel
                                          [  ]
C:/Users/iwaza/AppData/Local/Temp/_gbsbuild/obj/script_s94_init.rel
                                          [  ]
C:/Users/iwaza/AppData/Local/Temp/_gbsbuild/obj/script_s95_init.rel
                                          [  ]
C:/Users/iwaza/AppData/Local/Temp/_gbsbuild/obj/script_s96_init.rel
                                          [  ]
C:/Users/iwaza/AppData/Local/Temp/_gbsbuild/obj/script_s97_init.rel
                                          [  ]
C:/Users/iwaza/AppData/Local/Temp/_gbsbuild/obj/script_s98_init.rel
                                          [  ]
C:/Users/iwaza/AppData/Local/Temp/_gbsbuild/obj/script_s99_init.rel
                                          [  ]
C:/Users/iwaza/AppData/Local/Temp/_gbsbuild/obj/script_s9a2_update.rel
                                          [  ]
C:/Users/iwaza/AppData/Local/Temp/_gbsbuild/obj/script_s9t0_interact.rel
                                          [  ]
C:/Users/iwaza/AppData/Local/Temp/_gbsbuild/obj/script_s9t1_interact.rel
                                          [  ]
C:/Users/iwaza/AppData/Local/Temp/_gbsbuild/obj/script_timer_0.rel
                                          [  ]
C:/Users/iwaza/AppData/Local/Temp/_gbsbuild/obj/spritesheet_0.rel
                                          [ spritesheet_0 ]
C:/Users/iwaza/AppData/Local/Temp/_gbsbuild/obj/spritesheet_1.rel
                                          [ spritesheet_1 ]
C:/Users/iwaza/AppData/Local/Temp/_gbsbuild/obj/spritesheet_10.rel
                                          [ spritesheet_10 ]
C:/Users/iwaza/AppData/Local/Temp/_gbsbuild/obj/spritesheet_11.rel
                                          [ spritesheet_11 ]
C:/Users/iwaza/AppData/Local/Temp/_gbsbuild/obj/spritesheet_12.rel
                                          [ spritesheet_12 ]
C:/Users/iwaza/AppData/Local/Temp/_gbsbuild/obj/spritesheet_13.rel
                                          [ spritesheet_13 ]
C:/Users/iwaza/AppData/Local/Temp/_gbsbuild/obj/spritesheet_14.rel
                                          [ spritesheet_14 ]
C:/Users/iwaza/AppData/Local/Temp/_gbsbuild/obj/spritesheet_15.rel
                                          [ spritesheet_15 ]
C:/Users/iwaza/AppData/Local/Temp/_gbsbuild/obj/spritesheet_16.rel
                                          [ spritesheet_16 ]
C:/Users/iwaza/AppData/Local/Temp/_gbsbuild/obj/spritesheet_17.rel
                                          [ spritesheet_17 ]
C:/Users/iwaza/AppData/Local/Temp/_gbsbuild/obj/spritesheet_18.rel
                                          [ spritesheet_18 ]
C:/Users/iwaza/AppData/Local/Temp/_gbsbuild/obj/spritesheet_19.rel
                                          [ spritesheet_19 ]
C:/Users/iwaza/AppData/Local/Temp/_gbsbuild/obj/spritesheet_2.rel
                                          [ spritesheet_2 ]
C:/Users/iwaza/AppData/Local/Temp/_gbsbuild/obj/spritesheet_20.rel
                                          [ spritesheet_20 ]
C:/Users/iwaza/AppData/Local/Temp/_gbsbuild/obj/spritesheet_21.rel
                                          [ spritesheet_21 ]
C:/Users/iwaza/AppData/Local/Temp/_gbsbuild/obj/spritesheet_22.rel
                                          [ spritesheet_22 ]
C:/Users/iwaza/AppData/Local/Temp/_gbsbuild/obj/spritesheet_23.rel
                                          [ spritesheet_23 ]
C:/Users/iwaza/AppData/Local/Temp/_gbsbuild/obj/spritesheet_24.rel
                                          [ spritesheet_24 ]
C:/Users/iwaza/AppData/Local/Temp/_gbsbuild/obj/spritesheet_25.rel
                                          [ spritesheet_25 ]
C:/Users/iwaza/AppData/Local/Temp/_gbsbuild/obj/spritesheet_26.rel
                                          [ spritesheet_26 ]
C:/Users/iwaza/AppData/Local/Temp/_gbsbuild/obj/spritesheet_27.rel
                                          [ spritesheet_27 ]
C:/Users/iwaza/AppData/Local/Temp/_gbsbuild/obj/spritesheet_28.rel
                                          [ spritesheet_28 ]
C:/Users/iwaza/AppData/Local/Temp/_gbsbuild/obj/spritesheet_29.rel
                                          [ spritesheet_29 ]
C:/Users/iwaza/AppData/Local/Temp/_gbsbuild/obj/spritesheet_3.rel
                                          [ spritesheet_3 ]
C:/Users/iwaza/AppData/Local/Temp/_gbsbuild/obj/spritesheet_30.rel
                                          [ spritesheet_30 ]
C:/Users/iwaza/AppData/Local/Temp/_gbsbuild/obj/spritesheet_31.rel
                                          [ spritesheet_31 ]
C:/Users/iwaza/AppData/Local/Temp/_gbsbuild/obj/spritesheet_32.rel
                                          [ spritesheet_32 ]
C:/Users/iwaza/AppData/Local/Temp/_gbsbuild/obj/spritesheet_33.rel
                                          [ spritesheet_33 ]
C:/Users/iwaza/AppData/Local/Temp/_gbsbuild/obj/spritesheet_34.rel
                                          [ spritesheet_34 ]
C:/Users/iwaza/AppData/Local/Temp/_gbsbuild/obj/spritesheet_4.rel
                                          [ spritesheet_4 ]
C:/Users/iwaza/AppData/Local/Temp/_gbsbuild/obj/spritesheet_5.rel
                                          [ spritesheet_5 ]
C:/Users/iwaza/AppData/Local/Temp/_gbsbuild/obj/spritesheet_6.rel
                                          [ spritesheet_6 ]
C:/Users/iwaza/AppData/Local/Temp/_gbsbuild/obj/spritesheet_7.rel
                                          [ spritesheet_7 ]
C:/Users/iwaza/AppData/Local/Temp/_gbsbuild/obj/spritesheet_8.rel
                                          [ spritesheet_8 ]
C:/Users/iwaza/AppData/Local/Temp/_gbsbuild/obj/spritesheet_9.rel
                                          [ spritesheet_9 ]
C:/Users/iwaza/AppData/Local/Temp/_gbsbuild/obj/spritesheet_none.rel
                                          [ spritesheet_none ]
C:/Users/iwaza/AppData/Local/Temp/_gbsbuild/obj/tilemap_0.rel
                                          [ tilemap_0 ]
C:/Users/iwaza/AppData/Local/Temp/_gbsbuild/obj/tilemap_1.rel
                                          [ tilemap_1 ]
C:/Users/iwaza/AppData/Local/Temp/_gbsbuild/obj/tilemap_10.rel
                                          [ tilemap_10 ]
C:/Users/iwaza/AppData/Local/Temp/_gbsbuild/obj/tilemap_100.rel
                                          [ tilemap_100 ]
C:/Users/iwaza/AppData/Local/Temp/_gbsbuild/obj/tilemap_101.rel
                                          [ tilemap_101 ]
C:/Users/iwaza/AppData/Local/Temp/_gbsbuild/obj/tilemap_102.rel
                                          [ tilemap_102 ]
C:/Users/iwaza/AppData/Local/Temp/_gbsbuild/obj/tilemap_103.rel
                                          [ tilemap_103 ]
C:/Users/iwaza/AppData/Local/Temp/_gbsbuild/obj/tilemap_104.rel
                                          [ tilemap_104 ]
C:/Users/iwaza/AppData/Local/Temp/_gbsbuild/obj/tilemap_105.rel
                                          [ tilemap_105 ]
C:/Users/iwaza/AppData/Local/Temp/_gbsbuild/obj/tilemap_106.rel
                                          [ tilemap_106 ]
C:/Users/iwaza/AppData/Local/Temp/_gbsbuild/obj/tilemap_107.rel
                                          [ tilemap_107 ]
C:/Users/iwaza/AppData/Local/Temp/_gbsbuild/obj/tilemap_108.rel
                                          [ tilemap_108 ]
C:/Users/iwaza/AppData/Local/Temp/_gbsbuild/obj/tilemap_109.rel
                                          [ tilemap_109 ]
C:/Users/iwaza/AppData/Local/Temp/_gbsbuild/obj/tilemap_11.rel
                                          [ tilemap_11 ]
C:/Users/iwaza/AppData/Local/Temp/_gbsbuild/obj/tilemap_110.rel
                                          [ tilemap_110 ]
C:/Users/iwaza/AppData/Local/Temp/_gbsbuild/obj/tilemap_111.rel
                                          [ tilemap_111 ]
C:/Users/iwaza/AppData/Local/Temp/_gbsbuild/obj/tilemap_112.rel
                                          [ tilemap_112 ]
C:/Users/iwaza/AppData/Local/Temp/_gbsbuild/obj/tilemap_113.rel
                                          [ tilemap_113 ]
C:/Users/iwaza/AppData/Local/Temp/_gbsbuild/obj/tilemap_114.rel
                                          [ tilemap_114 ]
C:/Users/iwaza/AppData/Local/Temp/_gbsbuild/obj/tilemap_115.rel
                                          [ tilemap_115 ]
C:/Users/iwaza/AppData/Local/Temp/_gbsbuild/obj/tilemap_116.rel
                                          [ tilemap_116 ]
C:/Users/iwaza/AppData/Local/Temp/_gbsbuild/obj/tilemap_117.rel
                                          [ tilemap_117 ]
C:/Users/iwaza/AppData/Local/Temp/_gbsbuild/obj/tilemap_118.rel
                                          [ tilemap_118 ]
C:/Users/iwaza/AppData/Local/Temp/_gbsbuild/obj/tilemap_119.rel
                                          [ tilemap_119 ]
C:/Users/iwaza/AppData/Local/Temp/_gbsbuild/obj/tilemap_12.rel
                                          [ tilemap_12 ]
C:/Users/iwaza/AppData/Local/Temp/_gbsbuild/obj/tilemap_120.rel
                                          [ tilemap_120 ]
C:/Users/iwaza/AppData/Local/Temp/_gbsbuild/obj/tilemap_121.rel
                                          [ tilemap_121 ]
C:/Users/iwaza/AppData/Local/Temp/_gbsbuild/obj/tilemap_122.rel
                                          [ tilemap_122 ]
C:/Users/iwaza/AppData/Local/Temp/_gbsbuild/obj/tilemap_123.rel
                                          [ tilemap_123 ]
C:/Users/iwaza/AppData/Local/Temp/_gbsbuild/obj/tilemap_124.rel
                                          [ tilemap_124 ]
C:/Users/iwaza/AppData/Local/Temp/_gbsbuild/obj/tilemap_125.rel
                                          [ tilemap_125 ]
C:/Users/iwaza/AppData/Local/Temp/_gbsbuild/obj/tilemap_126.rel
                                          [ tilemap_126 ]
C:/Users/iwaza/AppData/Local/Temp/_gbsbuild/obj/tilemap_127.rel
                                          [ tilemap_127 ]
C:/Users/iwaza/AppData/Local/Temp/_gbsbuild/obj/tilemap_13.rel
                                          [ tilemap_13 ]
C:/Users/iwaza/AppData/Local/Temp/_gbsbuild/obj/tilemap_14.rel
                                          [ tilemap_14 ]
C:/Users/iwaza/AppData/Local/Temp/_gbsbuild/obj/tilemap_15.rel
                                          [ tilemap_15 ]
C:/Users/iwaza/AppData/Local/Temp/_gbsbuild/obj/tilemap_16.rel
                                          [ tilemap_16 ]
C:/Users/iwaza/AppData/Local/Temp/_gbsbuild/obj/tilemap_17.rel
                                          [ tilemap_17 ]
C:/Users/iwaza/AppData/Local/Temp/_gbsbuild/obj/tilemap_18.rel
                                          [ tilemap_18 ]
C:/Users/iwaza/AppData/Local/Temp/_gbsbuild/obj/tilemap_19.rel
                                          [ tilemap_19 ]
C:/Users/iwaza/AppData/Local/Temp/_gbsbuild/obj/tilemap_2.rel
                                          [ tilemap_2 ]
C:/Users/iwaza/AppData/Local/Temp/_gbsbuild/obj/tilemap_20.rel
                                          [ tilemap_20 ]
C:/Users/iwaza/AppData/Local/Temp/_gbsbuild/obj/tilemap_21.rel
                                          [ tilemap_21 ]
C:/Users/iwaza/AppData/Local/Temp/_gbsbuild/obj/tilemap_22.rel
                                          [ tilemap_22 ]
C:/Users/iwaza/AppData/Local/Temp/_gbsbuild/obj/tilemap_23.rel
                                          [ tilemap_23 ]
C:/Users/iwaza/AppData/Local/Temp/_gbsbuild/obj/tilemap_24.rel
                                          [ tilemap_24 ]
C:/Users/iwaza/AppData/Local/Temp/_gbsbuild/obj/tilemap_25.rel
                                          [ tilemap_25 ]
C:/Users/iwaza/AppData/Local/Temp/_gbsbuild/obj/tilemap_26.rel
                                          [ tilemap_26 ]
C:/Users/iwaza/AppData/Local/Temp/_gbsbuild/obj/tilemap_27.rel
                                          [ tilemap_27 ]
C:/Users/iwaza/AppData/Local/Temp/_gbsbuild/obj/tilemap_28.rel
                                          [ tilemap_28 ]
C:/Users/iwaza/AppData/Local/Temp/_gbsbuild/obj/tilemap_29.rel
                                          [ tilemap_29 ]
C:/Users/iwaza/AppData/Local/Temp/_gbsbuild/obj/tilemap_3.rel
                                          [ tilemap_3 ]
C:/Users/iwaza/AppData/Local/Temp/_gbsbuild/obj/tilemap_30.rel
                                          [ tilemap_30 ]
C:/Users/iwaza/AppData/Local/Temp/_gbsbuild/obj/tilemap_31.rel
                                          [ tilemap_31 ]
C:/Users/iwaza/AppData/Local/Temp/_gbsbuild/obj/tilemap_32.rel
                                          [ tilemap_32 ]
C:/Users/iwaza/AppData/Local/Temp/_gbsbuild/obj/tilemap_33.rel
                                          [ tilemap_33 ]
C:/Users/iwaza/AppData/Local/Temp/_gbsbuild/obj/tilemap_34.rel
                                          [ tilemap_34 ]
C:/Users/iwaza/AppData/Local/Temp/_gbsbuild/obj/tilemap_35.rel
                                          [ tilemap_35 ]
C:/Users/iwaza/AppData/Local/Temp/_gbsbuild/obj/tilemap_36.rel
                                          [ tilemap_36 ]
C:/Users/iwaza/AppData/Local/Temp/_gbsbuild/obj/tilemap_37.rel
                                          [ tilemap_37 ]
C:/Users/iwaza/AppData/Local/Temp/_gbsbuild/obj/tilemap_38.rel
                                          [ tilemap_38 ]
C:/Users/iwaza/AppData/Local/Temp/_gbsbuild/obj/tilemap_39.rel
                                          [ tilemap_39 ]
C:/Users/iwaza/AppData/Local/Temp/_gbsbuild/obj/tilemap_4.rel
                                          [ tilemap_4 ]
C:/Users/iwaza/AppData/Local/Temp/_gbsbuild/obj/tilemap_40.rel
                                          [ tilemap_40 ]
C:/Users/iwaza/AppData/Local/Temp/_gbsbuild/obj/tilemap_41.rel
                                          [ tilemap_41 ]
C:/Users/iwaza/AppData/Local/Temp/_gbsbuild/obj/tilemap_42.rel
                                          [ tilemap_42 ]
C:/Users/iwaza/AppData/Local/Temp/_gbsbuild/obj/tilemap_43.rel
                                          [ tilemap_43 ]
C:/Users/iwaza/AppData/Local/Temp/_gbsbuild/obj/tilemap_44.rel
                                          [ tilemap_44 ]
C:/Users/iwaza/AppData/Local/Temp/_gbsbuild/obj/tilemap_45.rel
                                          [ tilemap_45 ]
C:/Users/iwaza/AppData/Local/Temp/_gbsbuild/obj/tilemap_46.rel
                                          [ tilemap_46 ]
C:/Users/iwaza/AppData/Local/Temp/_gbsbuild/obj/tilemap_47.rel
                                          [ tilemap_47 ]
C:/Users/iwaza/AppData/Local/Temp/_gbsbuild/obj/tilemap_48.rel
                                          [ tilemap_48 ]
C:/Users/iwaza/AppData/Local/Temp/_gbsbuild/obj/tilemap_49.rel
                                          [ tilemap_49 ]
C:/Users/iwaza/AppData/Local/Temp/_gbsbuild/obj/tilemap_5.rel
                                          [ tilemap_5 ]
C:/Users/iwaza/AppData/Local/Temp/_gbsbuild/obj/tilemap_50.rel
                                          [ tilemap_50 ]
C:/Users/iwaza/AppData/Local/Temp/_gbsbuild/obj/tilemap_51.rel
                                          [ tilemap_51 ]
C:/Users/iwaza/AppData/Local/Temp/_gbsbuild/obj/tilemap_52.rel
                                          [ tilemap_52 ]
C:/Users/iwaza/AppData/Local/Temp/_gbsbuild/obj/tilemap_53.rel
                                          [ tilemap_53 ]
C:/Users/iwaza/AppData/Local/Temp/_gbsbuild/obj/tilemap_54.rel
                                          [ tilemap_54 ]
C:/Users/iwaza/AppData/Local/Temp/_gbsbuild/obj/tilemap_55.rel
                                          [ tilemap_55 ]
C:/Users/iwaza/AppData/Local/Temp/_gbsbuild/obj/tilemap_56.rel
                                          [ tilemap_56 ]
C:/Users/iwaza/AppData/Local/Temp/_gbsbuild/obj/tilemap_57.rel
                                          [ tilemap_57 ]
C:/Users/iwaza/AppData/Local/Temp/_gbsbuild/obj/tilemap_58.rel
                                          [ tilemap_58 ]
C:/Users/iwaza/AppData/Local/Temp/_gbsbuild/obj/tilemap_59.rel
                                          [ tilemap_59 ]
C:/Users/iwaza/AppData/Local/Temp/_gbsbuild/obj/tilemap_6.rel
                                          [ tilemap_6 ]
C:/Users/iwaza/AppData/Local/Temp/_gbsbuild/obj/tilemap_60.rel
                                          [ tilemap_60 ]
C:/Users/iwaza/AppData/Local/Temp/_gbsbuild/obj/tilemap_61.rel
                                          [ tilemap_61 ]
C:/Users/iwaza/AppData/Local/Temp/_gbsbuild/obj/tilemap_62.rel
                                          [ tilemap_62 ]
C:/Users/iwaza/AppData/Local/Temp/_gbsbuild/obj/tilemap_63.rel
                                          [ tilemap_63 ]
C:/Users/iwaza/AppData/Local/Temp/_gbsbuild/obj/tilemap_64.rel
                                          [ tilemap_64 ]
C:/Users/iwaza/AppData/Local/Temp/_gbsbuild/obj/tilemap_65.rel
                                          [ tilemap_65 ]
C:/Users/iwaza/AppData/Local/Temp/_gbsbuild/obj/tilemap_66.rel
                                          [ tilemap_66 ]
C:/Users/iwaza/AppData/Local/Temp/_gbsbuild/obj/tilemap_67.rel
                                          [ tilemap_67 ]
C:/Users/iwaza/AppData/Local/Temp/_gbsbuild/obj/tilemap_68.rel
                                          [ tilemap_68 ]
C:/Users/iwaza/AppData/Local/Temp/_gbsbuild/obj/tilemap_69.rel
                                          [ tilemap_69 ]
C:/Users/iwaza/AppData/Local/Temp/_gbsbuild/obj/tilemap_7.rel
                                          [ tilemap_7 ]
C:/Users/iwaza/AppData/Local/Temp/_gbsbuild/obj/tilemap_70.rel
                                          [ tilemap_70 ]
C:/Users/iwaza/AppData/Local/Temp/_gbsbuild/obj/tilemap_71.rel
                                          [ tilemap_71 ]
C:/Users/iwaza/AppData/Local/Temp/_gbsbuild/obj/tilemap_72.rel
                                          [ tilemap_72 ]
C:/Users/iwaza/AppData/Local/Temp/_gbsbuild/obj/tilemap_73.rel
                                          [ tilemap_73 ]
C:/Users/iwaza/AppData/Local/Temp/_gbsbuild/obj/tilemap_74.rel
                                          [ tilemap_74 ]
C:/Users/iwaza/AppData/Local/Temp/_gbsbuild/obj/tilemap_75.rel
                                          [ tilemap_75 ]
C:/Users/iwaza/AppData/Local/Temp/_gbsbuild/obj/tilemap_76.rel
                                          [ tilemap_76 ]
C:/Users/iwaza/AppData/Local/Temp/_gbsbuild/obj/tilemap_77.rel
                                          [ tilemap_77 ]
C:/Users/iwaza/AppData/Local/Temp/_gbsbuild/obj/tilemap_78.rel
                                          [ tilemap_78 ]
C:/Users/iwaza/AppData/Local/Temp/_gbsbuild/obj/tilemap_79.rel
                                          [ tilemap_79 ]
C:/Users/iwaza/AppData/Local/Temp/_gbsbuild/obj/tilemap_8.rel
                                          [ tilemap_8 ]
C:/Users/iwaza/AppData/Local/Temp/_gbsbuild/obj/tilemap_80.rel
                                          [ tilemap_80 ]
C:/Users/iwaza/AppData/Local/Temp/_gbsbuild/obj/tilemap_81.rel
                                          [ tilemap_81 ]
C:/Users/iwaza/AppData/Local/Temp/_gbsbuild/obj/tilemap_82.rel
                                          [ tilemap_82 ]
C:/Users/iwaza/AppData/Local/Temp/_gbsbuild/obj/tilemap_83.rel
                                          [ tilemap_83 ]
C:/Users/iwaza/AppData/Local/Temp/_gbsbuild/obj/tilemap_84.rel
                                          [ tilemap_84 ]
C:/Users/iwaza/AppData/Local/Temp/_gbsbuild/obj/tilemap_85.rel
                                          [ tilemap_85 ]
C:/Users/iwaza/AppData/Local/Temp/_gbsbuild/obj/tilemap_86.rel
                                          [ tilemap_86 ]
C:/Users/iwaza/AppData/Local/Temp/_gbsbuild/obj/tilemap_87.rel
                                          [ tilemap_87 ]
C:/Users/iwaza/AppData/Local/Temp/_gbsbuild/obj/tilemap_88.rel
                                          [ tilemap_88 ]
C:/Users/iwaza/AppData/Local/Temp/_gbsbuild/obj/tilemap_89.rel
                                          [ tilemap_89 ]
C:/Users/iwaza/AppData/Local/Temp/_gbsbuild/obj/tilemap_9.rel
                                          [ tilemap_9 ]
C:/Users/iwaza/AppData/Local/Temp/_gbsbuild/obj/tilemap_90.rel
                                          [ tilemap_90 ]
C:/Users/iwaza/AppData/Local/Temp/_gbsbuild/obj/tilemap_91.rel
                                          [ tilemap_91 ]
C:/Users/iwaza/AppData/Local/Temp/_gbsbuild/obj/tilemap_92.rel
                                          [ tilemap_92 ]
C:/Users/iwaza/AppData/Local/Temp/_gbsbuild/obj/tilemap_93.rel
                                          [ tilemap_93 ]
C:/Users/iwaza/AppData/Local/Temp/_gbsbuild/obj/tilemap_94.rel
                                          [ tilemap_94 ]
C:/Users/iwaza/AppData/Local/Temp/_gbsbuild/obj/tilemap_95.rel
                                          [ tilemap_95 ]
C:/Users/iwaza/AppData/Local/Temp/_gbsbuild/obj/tilemap_96.rel
                                          [ tilemap_96 ]
C:/Users/iwaza/AppData/Local/Temp/_gbsbuild/obj/tilemap_97.rel
                                          [ tilemap_97 ]
C:/Users/iwaza/AppData/Local/Temp/_gbsbuild/obj/tilemap_98.rel
                                          [ tilemap_98 ]
C:/Users/iwaza/AppData/Local/Temp/_gbsbuild/obj/tilemap_99.rel
                                          [ tilemap_99 ]
C:/Users/iwaza/AppData/Local/Temp/_gbsbuild/obj/tileset_0.rel
                                          [ tileset_0 ]
C:/Users/iwaza/AppData/Local/Temp/_gbsbuild/obj/tileset_1.rel
                                          [ tileset_1 ]
C:/Users/iwaza/AppData/Local/Temp/_gbsbuild/obj/tileset_10.rel
                                          [ tileset_10 ]
C:/Users/iwaza/AppData/Local/Temp/_gbsbuild/obj/tileset_11.rel
                                          [ tileset_11 ]
C:/Users/iwaza/AppData/Local/Temp/_gbsbuild/obj/tileset_12.rel
                                          [ tileset_12 ]
C:/Users/iwaza/AppData/Local/Temp/_gbsbuild/obj/tileset_13.rel
                                          [ tileset_13 ]
C:/Users/iwaza/AppData/Local/Temp/_gbsbuild/obj/tileset_14.rel
                                          [ tileset_14 ]
C:/Users/iwaza/AppData/Local/Temp/_gbsbuild/obj/tileset_15.rel
                                          [ tileset_15 ]
C:/Users/iwaza/AppData/Local/Temp/_gbsbuild/obj/tileset_16.rel
                                          [ tileset_16 ]
C:/Users/iwaza/AppData/Local/Temp/_gbsbuild/obj/tileset_17.rel
                                          [ tileset_17 ]
C:/Users/iwaza/AppData/Local/Temp/_gbsbuild/obj/tileset_18.rel
                                          [ tileset_18 ]
C:/Users/iwaza/AppData/Local/Temp/_gbsbuild/obj/tileset_19.rel
                                          [ tileset_19 ]
C:/Users/iwaza/AppData/Local/Temp/_gbsbuild/obj/tileset_2.rel
                                          [ tileset_2 ]
C:/Users/iwaza/AppData/Local/Temp/_gbsbuild/obj/tileset_20.rel
                                          [ tileset_20 ]
C:/Users/iwaza/AppData/Local/Temp/_gbsbuild/obj/tileset_21.rel
                                          [ tileset_21 ]
C:/Users/iwaza/AppData/Local/Temp/_gbsbuild/obj/tileset_22.rel
                                          [ tileset_22 ]
C:/Users/iwaza/AppData/Local/Temp/_gbsbuild/obj/tileset_23.rel
                                          [ tileset_23 ]
C:/Users/iwaza/AppData/Local/Temp/_gbsbuild/obj/tileset_24.rel
                                          [ tileset_24 ]
C:/Users/iwaza/AppData/Local/Temp/_gbsbuild/obj/tileset_25.rel
                                          [ tileset_25 ]
C:/Users/iwaza/AppData/Local/Temp/_gbsbuild/obj/tileset_26.rel
                                          [ tileset_26 ]
C:/Users/iwaza/AppData/Local/Temp/_gbsbuild/obj/tileset_27.rel
                                          [ tileset_27 ]
C:/Users/iwaza/AppData/Local/Temp/_gbsbuild/obj/tileset_28.rel
                                          [ tileset_28 ]
C:/Users/iwaza/AppData/Local/Temp/_gbsbuild/obj/tileset_29.rel
                                          [ tileset_29 ]
C:/Users/iwaza/AppData/Local/Temp/_gbsbuild/obj/tileset_3.rel
                                          [ tileset_3 ]
C:/Users/iwaza/AppData/Local/Temp/_gbsbuild/obj/tileset_30.rel
                                          [ tileset_30 ]
C:/Users/iwaza/AppData/Local/Temp/_gbsbuild/obj/tileset_31.rel
                                          [ tileset_31 ]
C:/Users/iwaza/AppData/Local/Temp/_gbsbuild/obj/tileset_32.rel
                                          [ tileset_32 ]
C:/Users/iwaza/AppData/Local/Temp/_gbsbuild/obj/tileset_33.rel
                                          [ tileset_33 ]
C:/Users/iwaza/AppData/Local/Temp/_gbsbuild/obj/tileset_34.rel
                                          [ tileset_34 ]
C:/Users/iwaza/AppData/Local/Temp/_gbsbuild/obj/tileset_35.rel
                                          [ tileset_35 ]
C:/Users/iwaza/AppData/Local/Temp/_gbsbuild/obj/tileset_36.rel
                                          [ tileset_36 ]
C:/Users/iwaza/AppData/Local/Temp/_gbsbuild/obj/tileset_37.rel
                                          [ tileset_37 ]
C:/Users/iwaza/AppData/Local/Temp/_gbsbuild/obj/tileset_38.rel
                                          [ tileset_38 ]
C:/Users/iwaza/AppData/Local/Temp/_gbsbuild/obj/tileset_39.rel
                                          [ tileset_39 ]
C:/Users/iwaza/AppData/Local/Temp/_gbsbuild/obj/tileset_4.rel
                                          [ tileset_4 ]
C:/Users/iwaza/AppData/Local/Temp/_gbsbuild/obj/tileset_40.rel
                                          [ tileset_40 ]
C:/Users/iwaza/AppData/Local/Temp/_gbsbuild/obj/tileset_41.rel
                                          [ tileset_41 ]
C:/Users/iwaza/AppData/Local/Temp/_gbsbuild/obj/tileset_42.rel
                                          [ tileset_42 ]
C:/Users/iwaza/AppData/Local/Temp/_gbsbuild/obj/tileset_43.rel
                                          [ tileset_43 ]
C:/Users/iwaza/AppData/Local/Temp/_gbsbuild/obj/tileset_44.rel
                                          [ tileset_44 ]
C:/Users/iwaza/AppData/Local/Temp/_gbsbuild/obj/tileset_45.rel
                                          [ tileset_45 ]
C:/Users/iwaza/AppData/Local/Temp/_gbsbuild/obj/tileset_46.rel
                                          [ tileset_46 ]
C:/Users/iwaza/AppData/Local/Temp/_gbsbuild/obj/tileset_47.rel
                                          [ tileset_47 ]
C:/Users/iwaza/AppData/Local/Temp/_gbsbuild/obj/tileset_48.rel
                                          [ tileset_48 ]
C:/Users/iwaza/AppData/Local/Temp/_gbsbuild/obj/tileset_49.rel
                                          [ tileset_49 ]
C:/Users/iwaza/AppData/Local/Temp/_gbsbuild/obj/tileset_5.rel
                                          [ tileset_5 ]
C:/Users/iwaza/AppData/Local/Temp/_gbsbuild/obj/tileset_50.rel
                                          [ tileset_50 ]
C:/Users/iwaza/AppData/Local/Temp/_gbsbuild/obj/tileset_51.rel
                                          [ tileset_51 ]
C:/Users/iwaza/AppData/Local/Temp/_gbsbuild/obj/tileset_52.rel
                                          [ tileset_52 ]
C:/Users/iwaza/AppData/Local/Temp/_gbsbuild/obj/tileset_53.rel
                                          [ tileset_53 ]
C:/Users/iwaza/AppData/Local/Temp/_gbsbuild/obj/tileset_54.rel
                                          [ tileset_54 ]
C:/Users/iwaza/AppData/Local/Temp/_gbsbuild/obj/tileset_55.rel
                                          [ tileset_55 ]
C:/Users/iwaza/AppData/Local/Temp/_gbsbuild/obj/tileset_56.rel
                                          [ tileset_56 ]
C:/Users/iwaza/AppData/Local/Temp/_gbsbuild/obj/tileset_57.rel
                                          [ tileset_57 ]
C:/Users/iwaza/AppData/Local/Temp/_gbsbuild/obj/tileset_58.rel
                                          [ tileset_58 ]
C:/Users/iwaza/AppData/Local/Temp/_gbsbuild/obj/tileset_59.rel
                                          [ tileset_59 ]
C:/Users/iwaza/AppData/Local/Temp/_gbsbuild/obj/tileset_6.rel
                                          [ tileset_6 ]
C:/Users/iwaza/AppData/Local/Temp/_gbsbuild/obj/tileset_60.rel
                                          [ tileset_60 ]
C:/Users/iwaza/AppData/Local/Temp/_gbsbuild/obj/tileset_61.rel
                                          [ tileset_61 ]
C:/Users/iwaza/AppData/Local/Temp/_gbsbuild/obj/tileset_62.rel
                                          [ tileset_62 ]
C:/Users/iwaza/AppData/Local/Temp/_gbsbuild/obj/tileset_63.rel
                                          [ tileset_63 ]
C:/Users/iwaza/AppData/Local/Temp/_gbsbuild/obj/tileset_64.rel
                                          [ tileset_64 ]
C:/Users/iwaza/AppData/Local/Temp/_gbsbuild/obj/tileset_65.rel
                                          [ tileset_65 ]
C:/Users/iwaza/AppData/Local/Temp/_gbsbuild/obj/tileset_66.rel
                                          [ tileset_66 ]
C:/Users/iwaza/AppData/Local/Temp/_gbsbuild/obj/tileset_67.rel
                                          [ tileset_67 ]
C:/Users/iwaza/AppData/Local/Temp/_gbsbuild/obj/tileset_68.rel
                                          [ tileset_68 ]
C:/Users/iwaza/AppData/Local/Temp/_gbsbuild/obj/tileset_69.rel
                                          [ tileset_69 ]
C:/Users/iwaza/AppData/Local/Temp/_gbsbuild/obj/tileset_7.rel
                                          [ tileset_7 ]
C:/Users/iwaza/AppData/Local/Temp/_gbsbuild/obj/tileset_70.rel
                                          [ tileset_70 ]
C:/Users/iwaza/AppData/Local/Temp/_gbsbuild/obj/tileset_71.rel
                                          [ tileset_71 ]
C:/Users/iwaza/AppData/Local/Temp/_gbsbuild/obj/tileset_72.rel
                                          [ tileset_72 ]
C:/Users/iwaza/AppData/Local/Temp/_gbsbuild/obj/tileset_73.rel
                                          [ tileset_73 ]
C:/Users/iwaza/AppData/Local/Temp/_gbsbuild/obj/tileset_74.rel
                                          [ tileset_74 ]
C:/Users/iwaza/AppData/Local/Temp/_gbsbuild/obj/tileset_75.rel
                                          [ tileset_75 ]
C:/Users/iwaza/AppData/Local/Temp/_gbsbuild/obj/tileset_76.rel
                                          [ tileset_76 ]
C:/Users/iwaza/AppData/Local/Temp/_gbsbuild/obj/tileset_77.rel
                                          [ tileset_77 ]
C:/Users/iwaza/AppData/Local/Temp/_gbsbuild/obj/tileset_78.rel
                                          [ tileset_78 ]
C:/Users/iwaza/AppData/Local/Temp/_gbsbuild/obj/tileset_79.rel
                                          [ tileset_79 ]
C:/Users/iwaza/AppData/Local/Temp/_gbsbuild/obj/tileset_8.rel
                                          [ tileset_8 ]
C:/Users/iwaza/AppData/Local/Temp/_gbsbuild/obj/tileset_80.rel
                                          [ tileset_80 ]
C:/Users/iwaza/AppData/Local/Temp/_gbsbuild/obj/tileset_81.rel
                                          [ tileset_81 ]
C:/Users/iwaza/AppData/Local/Temp/_gbsbuild/obj/tileset_82.rel
                                          [ tileset_82 ]
C:/Users/iwaza/AppData/Local/Temp/_gbsbuild/obj/tileset_83.rel
                                          [ tileset_83 ]
C:/Users/iwaza/AppData/Local/Temp/_gbsbuild/obj/tileset_84.rel
                                          [ tileset_84 ]
C:/Users/iwaza/AppData/Local/Temp/_gbsbuild/obj/tileset_85.rel
                                          [ tileset_85 ]
C:/Users/iwaza/AppData/Local/Temp/_gbsbuild/obj/tileset_86.rel
                                          [ tileset_86 ]
C:/Users/iwaza/AppData/Local/Temp/_gbsbuild/obj/tileset_87.rel
                                          [ tileset_87 ]
C:/Users/iwaza/AppData/Local/Temp/_gbsbuild/obj/tileset_88.rel
                                          [ tileset_88 ]
C:/Users/iwaza/AppData/Local/Temp/_gbsbuild/obj/tileset_89.rel
                                          [ tileset_89 ]
C:/Users/iwaza/AppData/Local/Temp/_gbsbuild/obj/tileset_9.rel
                                          [ tileset_9 ]
C:/Users/iwaza/AppData/Local/Temp/_gbsbuild/obj/tileset_90.rel
                                          [ tileset_90 ]
C:/Users/iwaza/AppData/Local/Temp/_gbsbuild/obj/tileset_91.rel
                                          [ tileset_91 ]
C:/Users/iwaza/AppData/Local/Temp/_gbsbuild/obj/tileset_92.rel
                                          [ tileset_92 ]
C:/Users/iwaza/AppData/Local/Temp/_gbsbuild/obj/tileset_93.rel
                                          [ tileset_93 ]
C:/Users/iwaza/AppData/Local/Temp/_gbsbuild/obj/tileset_94.rel
                                          [ tileset_94 ]
C:/Users/iwaza/AppData/Local/Temp/_gbsbuild/obj/tileset_95.rel
                                          [ tileset_95 ]
C:/Users/iwaza/AppData/Local/Temp/_gbsbuild/obj/main.rel
                                          [ main ]
C:/Users/iwaza/AppData/Local/Temp/_gbsbuild/obj/adventure.rel
                                          [ adventure ]
C:/Users/iwaza/AppData/Local/Temp/_gbsbuild/obj/logo.rel
                                          [ logo ]
C:/Users/iwaza/AppData/Local/Temp/_gbsbuild/obj/platform.rel
                                          [ platform ]
C:/Users/iwaza/AppData/Local/Temp/_gbsbuild/obj/pointnclick.rel
                                          [ pointnclick ]
C:/Users/iwaza/AppData/Local/Temp/_gbsbuild/obj/shmup.rel
                                          [ shmup ]
C:/Users/iwaza/AppData/Local/Temp/_gbsbuild/obj/states_ptrs.rel
                                          [  ]
C:/Users/iwaza/AppData/Local/Temp/_gbsbuild/obj/topdown.rel
                                          [ topdown ]


Libraries Linked                          [ object file ]

C:\Users\iwaza\AppData\Local\Temp/_gbstools/gbdk/lib/small/asxxxx/gb/gb.lib
                                          [ fill_rect_wi.o ]
C:\Users\iwaza\AppData\Local\Temp/_gbstools/gbdk/lib/small/asxxxx/gb/gb.lib
                                          [ sfr.o ]
lib/hUGEDriver.lib                        [ hUGEDriver.obj.o ]
C:\Users\iwaza\AppData\Local\Temp/_gbstools/gbdk/lib/small/asxxxx/gbz80/gbz80.lib
                                          [ rand.o ]
C:\Users\iwaza\AppData\Local\Temp/_gbstools/gbdk/lib/small/asxxxx/gbz80/gbz80.lib
                                          [ mul.o ]
C:\Users\iwaza\AppData\Local\Temp/_gbstools/gbdk/lib/small/asxxxx/gbz80/gbz80.lib
                                          [ abs.o ]
C:\Users\iwaza\AppData\Local\Temp/_gbstools/gbdk/lib/small/asxxxx/gb/gb.lib
                                          [ set_wi_t.o ]
C:\Users\iwaza\AppData\Local\Temp/_gbstools/gbdk/lib/small/asxxxx/gb/gb.lib
                                          [ set_data.o ]
C:\Users\iwaza\AppData\Local\Temp/_gbstools/gbdk/lib/small/asxxxx/gbz80/gbz80.lib
                                          [ reverse.o ]
C:\Users\iwaza\AppData\Local\Temp/_gbstools/gbdk/lib/small/asxxxx/gb/gb.lib
                                          [ far_ptr.o ]
C:\Users\iwaza\AppData\Local\Temp/_gbstools/gbdk/lib/small/asxxxx/gb/gb.lib
                                          [ sgb.o ]
C:\Users\iwaza\AppData\Local\Temp/_gbstools/gbdk/lib/small/asxxxx/gb/gb.lib
                                          [ lcd.o ]
C:\Users\iwaza\AppData\Local\Temp/_gbstools/gbdk/lib/small/asxxxx/gb/gb.lib
                                          [ fill_rect.o ]
C:\Users\iwaza\AppData\Local\Temp/_gbstools/gbdk/lib/small/asxxxx/gb/gb.lib
                                          [ cpy_data.o ]
C:\Users\iwaza\AppData\Local\Temp/_gbstools/gbdk/lib/small/asxxxx/gb/gb.lib
                                          [ fill_rect_bk.o ]
C:\Users\iwaza\AppData\Local\Temp/_gbstools/gbdk/lib/small/asxxxx/gb/gb.lib
                                          [ pad.o ]
C:\Users\iwaza\AppData\Local\Temp/_gbstools/gbdk/lib/small/asxxxx/gb/gb.lib
                                          [ metasprites.o ]
C:\Users\iwaza\AppData\Local\Temp/_gbstools/gbdk/lib/small/asxxxx/gbz80/gbz80.lib
                                          [ __sdcc_call_hl.o ]
C:\Users\iwaza\AppData\Local\Temp/_gbstools/gbdk/lib/small/asxxxx/gbz80/gbz80.lib
                                          [ _memcpy.o ]
C:\Users\iwaza\AppData\Local\Temp/_gbstools/gbdk/lib/small/asxxxx/gbz80/gbz80.lib
                                          [ _memset.o ]
C:\Users\iwaza\AppData\Local\Temp/_gbstools/gbdk/lib/small/asxxxx/gb/gb.lib
                                          [ ___sdcc_bcall_ehl.o ]
C:\Users\iwaza\AppData\Local\Temp/_gbstools/gbdk/lib/small/asxxxx/gbz80/gbz80.lib
                                          [ div.o ]
C:\Users\iwaza\AppData\Local\Temp/_gbstools/gbdk/lib/small/asxxxx/gb/gb.lib
                                          [ set_bk_t.o ]
C:\Users\iwaza\AppData\Local\Temp/_gbstools/gbdk/lib/small/asxxxx/gb/gb.lib
                                          [ set_xy_t.o ]

ASxxxx Linker V03.00 + NoICE + sdld,  page 150.

User Base Address Definitions

_DATA=0xc0a0
_CODE=0x0200
ASxxxx Linker V03.00 + NoICE + sdld,  page 151.

User Global Definitions

.STACK=0xDF00
_shadow_OAM=0xC000
.refresh_OAM=0xFF80
__start_save=60

